C000   4C   F5   C5    JMP    A:00    X:00    Y:00    P:24    SP:FD       BaseAddr:C5F5    IndirAddr:0000    Absolute
C5F5   00   A2   00    LDX    A:00    X:00    Y:00    P:26    SP:FD       BaseAddr:0000    IndirAddr:0000    Immediate
C5F7   00   86   00    STX    A:00    X:00    Y:00    P:26    SP:FD       BaseAddr:0000    IndirAddr:0000    Zero_page
C5F9   00   86   10    STX    A:00    X:00    Y:00    P:26    SP:FD       BaseAddr:0010    IndirAddr:0000    Zero_page
C5FB   00   86   11    STX    A:00    X:00    Y:00    P:26    SP:FD       BaseAddr:0011    IndirAddr:0000    Zero_page
C5FD   2D   00   C7    JSR    A:00    X:00    Y:00    P:26    SP:FB       BaseAddr:C72D    IndirAddr:0000    Absolute
C72D   00   EA   38    NOP    A:00    X:00    Y:00    P:26    SP:FB       BaseAddr:0000    IndirAddr:0000    Implied
C72E   00   38   B0    SEC    A:00    X:00    Y:00    P:27    SP:FB       BaseAddr:0000    IndirAddr:0000    Implied
C72F   00   B0   04    BCS    A:00    X:00    Y:00    P:27    SP:FB       BaseAddr:0000    IndirAddr:0000    Relative
C735   00   EA   18    NOP    A:00    X:00    Y:00    P:27    SP:FB       BaseAddr:0000    IndirAddr:0000    Implied
C736   00   18   B0    CLC    A:00    X:00    Y:00    P:26    SP:FB       BaseAddr:0000    IndirAddr:0000    Implied
C737   00   B0   03    BCS    A:00    X:00    Y:00    P:26    SP:FB       BaseAddr:0000    IndirAddr:0000    Relative
C739   4C   40   C7    JMP    A:00    X:00    Y:00    P:26    SP:FB       BaseAddr:C740    IndirAddr:0000    Absolute
C740   00   EA   38    NOP    A:00    X:00    Y:00    P:26    SP:FB       BaseAddr:0000    IndirAddr:0000    Implied
C741   00   38   90    SEC    A:00    X:00    Y:00    P:27    SP:FB       BaseAddr:0000    IndirAddr:0000    Implied
C742   00   90   03    BCC    A:00    X:00    Y:00    P:27    SP:FB       BaseAddr:0000    IndirAddr:0000    Relative
C744   4C   4B   C7    JMP    A:00    X:00    Y:00    P:27    SP:FB       BaseAddr:C74B    IndirAddr:0000    Absolute
C74B   00   EA   18    NOP    A:00    X:00    Y:00    P:27    SP:FB       BaseAddr:0000    IndirAddr:0000    Implied
C74C   00   18   90    CLC    A:00    X:00    Y:00    P:26    SP:FB       BaseAddr:0000    IndirAddr:0000    Implied
C74D   00   90   04    BCC    A:00    X:00    Y:00    P:26    SP:FB       BaseAddr:0000    IndirAddr:0000    Relative
C753   00   EA   A9    NOP    A:00    X:00    Y:00    P:26    SP:FB       BaseAddr:0000    IndirAddr:0000    Implied
C754   00   A9   00    LDA    A:00    X:00    Y:00    P:26    SP:FB       BaseAddr:0000    IndirAddr:0000    Immediate
C756   00   F0   04    BEQ    A:00    X:00    Y:00    P:26    SP:FB       BaseAddr:0000    IndirAddr:0000    Relative
C75C   00   EA   A9    NOP    A:00    X:00    Y:00    P:26    SP:FB       BaseAddr:0000    IndirAddr:0000    Implied
C75D   00   A9   40    LDA    A:40    X:00    Y:00    P:24    SP:FB       BaseAddr:0000    IndirAddr:0000    Immediate
C75F   00   F0   03    BEQ    A:40    X:00    Y:00    P:24    SP:FB       BaseAddr:0000    IndirAddr:0000    Relative
C761   4C   68   C7    JMP    A:40    X:00    Y:00    P:24    SP:FB       BaseAddr:C768    IndirAddr:0000    Absolute
C768   00   EA   A9    NOP    A:40    X:00    Y:00    P:24    SP:FB       BaseAddr:0000    IndirAddr:0000    Implied
C769   00   A9   40    LDA    A:40    X:00    Y:00    P:24    SP:FB       BaseAddr:0000    IndirAddr:0000    Immediate
C76B   00   D0   04    BNE    A:40    X:00    Y:00    P:24    SP:FB       BaseAddr:0000    IndirAddr:0000    Relative
C771   00   EA   A9    NOP    A:40    X:00    Y:00    P:24    SP:FB       BaseAddr:0000    IndirAddr:0000    Implied
C772   00   A9   00    LDA    A:00    X:00    Y:00    P:26    SP:FB       BaseAddr:0000    IndirAddr:0000    Immediate
C774   00   D0   03    BNE    A:00    X:00    Y:00    P:26    SP:FB       BaseAddr:0000    IndirAddr:0000    Relative
C776   4C   7D   C7    JMP    A:00    X:00    Y:00    P:26    SP:FB       BaseAddr:C77D    IndirAddr:0000    Absolute
C77D   00   EA   A9    NOP    A:00    X:00    Y:00    P:26    SP:FB       BaseAddr:0000    IndirAddr:0000    Implied
C77E   00   A9   FF    LDA    A:FF    X:00    Y:00    P:A4    SP:FB       BaseAddr:0000    IndirAddr:0000    Immediate
C780   00   85   01    STA    A:FF    X:00    Y:00    P:A4    SP:FB       BaseAddr:0001    IndirAddr:0000    Zero_page
C782   24   01   FF    BIT    A:FF    X:00    Y:00    P:E4    SP:FB       BaseAddr:0001    IndirAddr:0000    Zero_page
C784   00   70   04    BVS    A:FF    X:00    Y:00    P:E4    SP:FB       BaseAddr:0000    IndirAddr:0000    Relative
C78A   00   EA   24    NOP    A:FF    X:00    Y:00    P:E4    SP:FB       BaseAddr:0000    IndirAddr:0000    Implied
C78B   24   01   FF    BIT    A:FF    X:00    Y:00    P:E4    SP:FB       BaseAddr:0001    IndirAddr:0000    Zero_page
C78D   00   50   03    BVC    A:FF    X:00    Y:00    P:E4    SP:FB       BaseAddr:0000    IndirAddr:0000    Relative
C78F   4C   96   C7    JMP    A:FF    X:00    Y:00    P:E4    SP:FB       BaseAddr:C796    IndirAddr:0000    Absolute
C796   00   EA   A9    NOP    A:FF    X:00    Y:00    P:E4    SP:FB       BaseAddr:0000    IndirAddr:0000    Implied
C797   00   A9   00    LDA    A:00    X:00    Y:00    P:66    SP:FB       BaseAddr:0000    IndirAddr:0000    Immediate
C799   00   85   01    STA    A:00    X:00    Y:00    P:66    SP:FB       BaseAddr:0001    IndirAddr:0000    Zero_page
C79B   24   01   00    BIT    A:00    X:00    Y:00    P:26    SP:FB       BaseAddr:0001    IndirAddr:0000    Zero_page
C79D   00   50   04    BVC    A:00    X:00    Y:00    P:26    SP:FB       BaseAddr:0000    IndirAddr:0000    Relative
C7A3   00   EA   24    NOP    A:00    X:00    Y:00    P:26    SP:FB       BaseAddr:0000    IndirAddr:0000    Implied
C7A4   24   01   00    BIT    A:00    X:00    Y:00    P:26    SP:FB       BaseAddr:0001    IndirAddr:0000    Zero_page
C7A6   00   70   03    BVS    A:00    X:00    Y:00    P:26    SP:FB       BaseAddr:0000    IndirAddr:0000    Relative
C7A8   4C   AF   C7    JMP    A:00    X:00    Y:00    P:26    SP:FB       BaseAddr:C7AF    IndirAddr:0000    Absolute
C7AF   00   EA   A9    NOP    A:00    X:00    Y:00    P:26    SP:FB       BaseAddr:0000    IndirAddr:0000    Implied
C7B0   00   A9   00    LDA    A:00    X:00    Y:00    P:26    SP:FB       BaseAddr:0000    IndirAddr:0000    Immediate
C7B2   00   10   04    BPL    A:00    X:00    Y:00    P:26    SP:FB       BaseAddr:0000    IndirAddr:0000    Relative
C7B8   00   EA   A9    NOP    A:00    X:00    Y:00    P:26    SP:FB       BaseAddr:0000    IndirAddr:0000    Implied
C7B9   00   A9   80    LDA    A:80    X:00    Y:00    P:A4    SP:FB       BaseAddr:0000    IndirAddr:0000    Immediate
C7BB   00   10   03    BPL    A:80    X:00    Y:00    P:A4    SP:FB       BaseAddr:0000    IndirAddr:0000    Relative
C7BD   4C   D9   C7    JMP    A:80    X:00    Y:00    P:A4    SP:FB       BaseAddr:C7D9    IndirAddr:0000    Absolute
C7D9   00   EA   60    NOP    A:80    X:00    Y:00    P:A4    SP:FB       BaseAddr:0000    IndirAddr:0000    Implied
C7DA   FE   C5   C7    RTS    A:80    X:00    Y:00    P:A4    SP:FD       BaseAddr:0000    IndirAddr:0000    Implied
C600   DB   C5   C7    JSR    A:80    X:00    Y:00    P:A4    SP:FB       BaseAddr:C7DB    IndirAddr:0000    Absolute
C7DB   00   EA   A9    NOP    A:80    X:00    Y:00    P:A4    SP:FB       BaseAddr:0000    IndirAddr:0000    Implied
C7DC   00   A9   FF    LDA    A:FF    X:00    Y:00    P:A4    SP:FB       BaseAddr:0000    IndirAddr:0000    Immediate
C7DE   00   85   01    STA    A:FF    X:00    Y:00    P:A4    SP:FB       BaseAddr:0001    IndirAddr:0000    Zero_page
C7E0   24   01   FF    BIT    A:FF    X:00    Y:00    P:E4    SP:FB       BaseAddr:0001    IndirAddr:0000    Zero_page
C7E2   00   A9   00    LDA    A:00    X:00    Y:00    P:66    SP:FB       BaseAddr:0000    IndirAddr:0000    Immediate
C7E4   00   38   78    SEC    A:00    X:00    Y:00    P:67    SP:FB       BaseAddr:0000    IndirAddr:0000    Implied
C7E5   00   78   F8    SEI    A:00    X:00    Y:00    P:67    SP:FB       BaseAddr:0000    IndirAddr:0000    Implied
C7E6   00   F8   08    SED    A:00    X:00    Y:00    P:6F    SP:FB       BaseAddr:0000    IndirAddr:0000    Implied
C7E7   00   08   68    PHP    A:00    X:00    Y:00    P:6F    SP:FA       BaseAddr:0000    IndirAddr:0000    Implied
C7E8   29   00   7F    PLA    A:7F    X:00    Y:00    P:6D    SP:FB       BaseAddr:0000    IndirAddr:0000    Implied
C7E9   00   29   EF    AND    A:6F    X:00    Y:00    P:6D    SP:FB       BaseAddr:0000    IndirAddr:0000    Immediate
C7EB   00   C9   6F    CMP    A:6F    X:00    Y:00    P:6F    SP:FB       BaseAddr:0000    IndirAddr:0000    Immediate
C7ED   00   F0   04    BEQ    A:6F    X:00    Y:00    P:6F    SP:FB       BaseAddr:0000    IndirAddr:0000    Relative
C7F3   00   EA   A9    NOP    A:6F    X:00    Y:00    P:6F    SP:FB       BaseAddr:0000    IndirAddr:0000    Implied
C7F4   00   A9   40    LDA    A:40    X:00    Y:00    P:6D    SP:FB       BaseAddr:0000    IndirAddr:0000    Immediate
C7F6   00   85   01    STA    A:40    X:00    Y:00    P:6D    SP:FB       BaseAddr:0001    IndirAddr:0000    Zero_page
C7F8   24   01   40    BIT    A:40    X:00    Y:00    P:6D    SP:FB       BaseAddr:0001    IndirAddr:0000    Zero_page
C7FA   00   D8   A9    CLD    A:40    X:00    Y:00    P:65    SP:FB       BaseAddr:0000    IndirAddr:0000    Implied
C7FB   00   A9   10    LDA    A:10    X:00    Y:00    P:65    SP:FB       BaseAddr:0000    IndirAddr:0000    Immediate
C7FD   00   18   08    CLC    A:10    X:00    Y:00    P:64    SP:FB       BaseAddr:0000    IndirAddr:0000    Implied
C7FE   00   08   68    PHP    A:10    X:00    Y:00    P:64    SP:FA       BaseAddr:0000    IndirAddr:0000    Implied
C7FF   29   00   74    PLA    A:74    X:00    Y:00    P:64    SP:FB       BaseAddr:0000    IndirAddr:0000    Implied
C800   00   29   EF    AND    A:64    X:00    Y:00    P:64    SP:FB       BaseAddr:0000    IndirAddr:0000    Immediate
C802   00   C9   64    CMP    A:64    X:00    Y:00    P:67    SP:FB       BaseAddr:0000    IndirAddr:0000    Immediate
C804   00   F0   04    BEQ    A:64    X:00    Y:00    P:67    SP:FB       BaseAddr:0000    IndirAddr:0000    Relative
C80A   00   EA   A9    NOP    A:64    X:00    Y:00    P:67    SP:FB       BaseAddr:0000    IndirAddr:0000    Implied
C80B   00   A9   80    LDA    A:80    X:00    Y:00    P:E5    SP:FB       BaseAddr:0000    IndirAddr:0000    Immediate
C80D   00   85   01    STA    A:80    X:00    Y:00    P:E5    SP:FB       BaseAddr:0001    IndirAddr:0000    Zero_page
C80F   24   01   80    BIT    A:80    X:00    Y:00    P:A5    SP:FB       BaseAddr:0001    IndirAddr:0000    Zero_page
C811   00   F8   A9    SED    A:80    X:00    Y:00    P:AD    SP:FB       BaseAddr:0000    IndirAddr:0000    Implied
C812   00   A9   00    LDA    A:00    X:00    Y:00    P:2F    SP:FB       BaseAddr:0000    IndirAddr:0000    Immediate
C814   00   38   08    SEC    A:00    X:00    Y:00    P:2F    SP:FB       BaseAddr:0000    IndirAddr:0000    Implied
C815   00   08   68    PHP    A:00    X:00    Y:00    P:2F    SP:FA       BaseAddr:0000    IndirAddr:0000    Implied
C816   29   00   3F    PLA    A:3F    X:00    Y:00    P:2D    SP:FB       BaseAddr:0000    IndirAddr:0000    Implied
C817   00   29   EF    AND    A:2F    X:00    Y:00    P:2D    SP:FB       BaseAddr:0000    IndirAddr:0000    Immediate
C819   00   C9   2F    CMP    A:2F    X:00    Y:00    P:2F    SP:FB       BaseAddr:0000    IndirAddr:0000    Immediate
C81B   00   F0   04    BEQ    A:2F    X:00    Y:00    P:2F    SP:FB       BaseAddr:0000    IndirAddr:0000    Relative
C821   00   EA   A9    NOP    A:2F    X:00    Y:00    P:2F    SP:FB       BaseAddr:0000    IndirAddr:0000    Implied
C822   00   A9   FF    LDA    A:FF    X:00    Y:00    P:AD    SP:FB       BaseAddr:0000    IndirAddr:0000    Immediate
C824   00   48   28    PHA    A:FF    X:00    Y:00    P:AD    SP:FA       BaseAddr:0000    IndirAddr:0000    Implied
C825   D0   00   FF    PLP    A:FF    X:00    Y:00    P:EF    SP:FB       BaseAddr:0000    IndirAddr:0000    Implied
C826   00   D0   09    BNE    A:FF    X:00    Y:00    P:EF    SP:FB       BaseAddr:0000    IndirAddr:0000    Relative
C828   00   10   07    BPL    A:FF    X:00    Y:00    P:EF    SP:FB       BaseAddr:0000    IndirAddr:0000    Relative
C82A   00   50   05    BVC    A:FF    X:00    Y:00    P:EF    SP:FB       BaseAddr:0000    IndirAddr:0000    Relative
C82C   00   90   03    BCC    A:FF    X:00    Y:00    P:EF    SP:FB       BaseAddr:0000    IndirAddr:0000    Relative
C82E   4C   35   C8    JMP    A:FF    X:00    Y:00    P:EF    SP:FB       BaseAddr:C835    IndirAddr:0000    Absolute
C835   00   EA   A9    NOP    A:FF    X:00    Y:00    P:EF    SP:FB       BaseAddr:0000    IndirAddr:0000    Implied
C836   00   A9   04    LDA    A:04    X:00    Y:00    P:6D    SP:FB       BaseAddr:0000    IndirAddr:0000    Immediate
C838   00   48   28    PHA    A:04    X:00    Y:00    P:6D    SP:FA       BaseAddr:0000    IndirAddr:0000    Implied
C839   F0   00   04    PLP    A:04    X:00    Y:00    P:24    SP:FB       BaseAddr:0000    IndirAddr:0000    Implied
C83A   00   F0   09    BEQ    A:04    X:00    Y:00    P:24    SP:FB       BaseAddr:0000    IndirAddr:0000    Relative
C83C   00   30   07    BMI    A:04    X:00    Y:00    P:24    SP:FB       BaseAddr:0000    IndirAddr:0000    Relative
C83E   00   70   05    BVS    A:04    X:00    Y:00    P:24    SP:FB       BaseAddr:0000    IndirAddr:0000    Relative
C840   00   B0   03    BCS    A:04    X:00    Y:00    P:24    SP:FB       BaseAddr:0000    IndirAddr:0000    Relative
C842   4C   49   C8    JMP    A:04    X:00    Y:00    P:24    SP:FB       BaseAddr:C849    IndirAddr:0000    Absolute
C849   00   EA   F8    NOP    A:04    X:00    Y:00    P:24    SP:FB       BaseAddr:0000    IndirAddr:0000    Implied
C84A   00   F8   A9    SED    A:04    X:00    Y:00    P:2C    SP:FB       BaseAddr:0000    IndirAddr:0000    Implied
C84B   00   A9   FF    LDA    A:FF    X:00    Y:00    P:AC    SP:FB       BaseAddr:0000    IndirAddr:0000    Immediate
C84D   00   85   01    STA    A:FF    X:00    Y:00    P:AC    SP:FB       BaseAddr:0001    IndirAddr:0000    Zero_page
C84F   24   01   FF    BIT    A:FF    X:00    Y:00    P:EC    SP:FB       BaseAddr:0001    IndirAddr:0000    Zero_page
C851   00   18   A9    CLC    A:FF    X:00    Y:00    P:EC    SP:FB       BaseAddr:0000    IndirAddr:0000    Implied
C852   00   A9   00    LDA    A:00    X:00    Y:00    P:6E    SP:FB       BaseAddr:0000    IndirAddr:0000    Immediate
C854   00   48   A9    PHA    A:00    X:00    Y:00    P:6E    SP:FA       BaseAddr:0000    IndirAddr:0000    Implied
C855   00   A9   FF    LDA    A:FF    X:00    Y:00    P:EC    SP:FA       BaseAddr:0000    IndirAddr:0000    Immediate
C857   D0   00   00    PLA    A:00    X:00    Y:00    P:6E    SP:FB       BaseAddr:0000    IndirAddr:0000    Implied
C858   00   D0   09    BNE    A:00    X:00    Y:00    P:6E    SP:FB       BaseAddr:0000    IndirAddr:0000    Relative
C85A   00   30   07    BMI    A:00    X:00    Y:00    P:6E    SP:FB       BaseAddr:0000    IndirAddr:0000    Relative
C85C   00   50   05    BVC    A:00    X:00    Y:00    P:6E    SP:FB       BaseAddr:0000    IndirAddr:0000    Relative
C85E   00   B0   03    BCS    A:00    X:00    Y:00    P:6E    SP:FB       BaseAddr:0000    IndirAddr:0000    Relative
C860   4C   67   C8    JMP    A:00    X:00    Y:00    P:6E    SP:FB       BaseAddr:C867    IndirAddr:0000    Absolute
C867   00   EA   A9    NOP    A:00    X:00    Y:00    P:6E    SP:FB       BaseAddr:0000    IndirAddr:0000    Implied
C868   00   A9   00    LDA    A:00    X:00    Y:00    P:6E    SP:FB       BaseAddr:0000    IndirAddr:0000    Immediate
C86A   00   85   01    STA    A:00    X:00    Y:00    P:6E    SP:FB       BaseAddr:0001    IndirAddr:0000    Zero_page
C86C   24   01   00    BIT    A:00    X:00    Y:00    P:2E    SP:FB       BaseAddr:0001    IndirAddr:0000    Zero_page
C86E   00   38   A9    SEC    A:00    X:00    Y:00    P:2F    SP:FB       BaseAddr:0000    IndirAddr:0000    Implied
C86F   00   A9   FF    LDA    A:FF    X:00    Y:00    P:AD    SP:FB       BaseAddr:0000    IndirAddr:0000    Immediate
C871   00   48   A9    PHA    A:FF    X:00    Y:00    P:AD    SP:FA       BaseAddr:0000    IndirAddr:0000    Implied
C872   00   A9   00    LDA    A:00    X:00    Y:00    P:2F    SP:FA       BaseAddr:0000    IndirAddr:0000    Immediate
C874   F0   00   FF    PLA    A:FF    X:00    Y:00    P:AD    SP:FB       BaseAddr:0000    IndirAddr:0000    Implied
C875   00   F0   09    BEQ    A:FF    X:00    Y:00    P:AD    SP:FB       BaseAddr:0000    IndirAddr:0000    Relative
C877   00   10   07    BPL    A:FF    X:00    Y:00    P:AD    SP:FB       BaseAddr:0000    IndirAddr:0000    Relative
C879   00   70   05    BVS    A:FF    X:00    Y:00    P:AD    SP:FB       BaseAddr:0000    IndirAddr:0000    Relative
C87B   00   90   03    BCC    A:FF    X:00    Y:00    P:AD    SP:FB       BaseAddr:0000    IndirAddr:0000    Relative
C87D   4C   84   C8    JMP    A:FF    X:00    Y:00    P:AD    SP:FB       BaseAddr:C884    IndirAddr:0000    Absolute
C884   01   C6   C7    RTS    A:FF    X:00    Y:00    P:AD    SP:FD       BaseAddr:0000    IndirAddr:0000    Implied
C603   85   C6   C8    JSR    A:FF    X:00    Y:00    P:AD    SP:FB       BaseAddr:C885    IndirAddr:0000    Absolute
C885   00   EA   18    NOP    A:FF    X:00    Y:00    P:AD    SP:FB       BaseAddr:0000    IndirAddr:0000    Implied
C886   00   18   A9    CLC    A:FF    X:00    Y:00    P:AC    SP:FB       BaseAddr:0000    IndirAddr:0000    Implied
C887   00   A9   FF    LDA    A:FF    X:00    Y:00    P:AC    SP:FB       BaseAddr:0000    IndirAddr:0000    Immediate
C889   00   85   01    STA    A:FF    X:00    Y:00    P:AC    SP:FB       BaseAddr:0001    IndirAddr:0000    Zero_page
C88B   24   01   FF    BIT    A:FF    X:00    Y:00    P:EC    SP:FB       BaseAddr:0001    IndirAddr:0000    Zero_page
C88D   00   A9   55    LDA    A:55    X:00    Y:00    P:6C    SP:FB       BaseAddr:0000    IndirAddr:0000    Immediate
C88F   00   09   AA    ORA    A:FF    X:00    Y:00    P:EC    SP:FB       BaseAddr:0000    IndirAddr:0000    Immediate
C891   00   B0   0B    BCS    A:FF    X:00    Y:00    P:EC    SP:FB       BaseAddr:0000    IndirAddr:0000    Relative
C893   00   10   09    BPL    A:FF    X:00    Y:00    P:EC    SP:FB       BaseAddr:0000    IndirAddr:0000    Relative
C895   00   C9   FF    CMP    A:FF    X:00    Y:00    P:EF    SP:FB       BaseAddr:0000    IndirAddr:0000    Immediate
C897   00   D0   05    BNE    A:FF    X:00    Y:00    P:EF    SP:FB       BaseAddr:0000    IndirAddr:0000    Relative
C899   00   50   03    BVC    A:FF    X:00    Y:00    P:EF    SP:FB       BaseAddr:0000    IndirAddr:0000    Relative
C89B   4C   A2   C8    JMP    A:FF    X:00    Y:00    P:EF    SP:FB       BaseAddr:C8A2    IndirAddr:0000    Absolute
C8A2   00   EA   38    NOP    A:FF    X:00    Y:00    P:EF    SP:FB       BaseAddr:0000    IndirAddr:0000    Implied
C8A3   00   38   B8    SEC    A:FF    X:00    Y:00    P:EF    SP:FB       BaseAddr:0000    IndirAddr:0000    Implied
C8A4   00   B8   A9    CLV    A:FF    X:00    Y:00    P:AF    SP:FB       BaseAddr:0000    IndirAddr:0000    Implied
C8A5   00   A9   00    LDA    A:00    X:00    Y:00    P:2F    SP:FB       BaseAddr:0000    IndirAddr:0000    Immediate
C8A7   00   09   00    ORA    A:00    X:00    Y:00    P:2F    SP:FB       BaseAddr:0000    IndirAddr:0000    Immediate
C8A9   00   D0   09    BNE    A:00    X:00    Y:00    P:2F    SP:FB       BaseAddr:0000    IndirAddr:0000    Relative
C8AB   00   70   07    BVS    A:00    X:00    Y:00    P:2F    SP:FB       BaseAddr:0000    IndirAddr:0000    Relative
C8AD   00   90   05    BCC    A:00    X:00    Y:00    P:2F    SP:FB       BaseAddr:0000    IndirAddr:0000    Relative
C8AF   00   30   03    BMI    A:00    X:00    Y:00    P:2F    SP:FB       BaseAddr:0000    IndirAddr:0000    Relative
C8B1   4C   B8   C8    JMP    A:00    X:00    Y:00    P:2F    SP:FB       BaseAddr:C8B8    IndirAddr:0000    Absolute
C8B8   00   EA   18    NOP    A:00    X:00    Y:00    P:2F    SP:FB       BaseAddr:0000    IndirAddr:0000    Implied
C8B9   00   18   24    CLC    A:00    X:00    Y:00    P:2E    SP:FB       BaseAddr:0000    IndirAddr:0000    Implied
C8BA   24   01   FF    BIT    A:00    X:00    Y:00    P:EE    SP:FB       BaseAddr:0001    IndirAddr:0000    Zero_page
C8BC   00   A9   55    LDA    A:55    X:00    Y:00    P:6C    SP:FB       BaseAddr:0000    IndirAddr:0000    Immediate
C8BE   00   29   AA    AND    A:00    X:00    Y:00    P:6E    SP:FB       BaseAddr:0000    IndirAddr:0000    Immediate
C8C0   00   D0   09    BNE    A:00    X:00    Y:00    P:6E    SP:FB       BaseAddr:0000    IndirAddr:0000    Relative
C8C2   00   50   07    BVC    A:00    X:00    Y:00    P:6E    SP:FB       BaseAddr:0000    IndirAddr:0000    Relative
C8C4   00   B0   05    BCS    A:00    X:00    Y:00    P:6E    SP:FB       BaseAddr:0000    IndirAddr:0000    Relative
C8C6   00   30   03    BMI    A:00    X:00    Y:00    P:6E    SP:FB       BaseAddr:0000    IndirAddr:0000    Relative
C8C8   4C   CF   C8    JMP    A:00    X:00    Y:00    P:6E    SP:FB       BaseAddr:C8CF    IndirAddr:0000    Absolute
C8CF   00   EA   38    NOP    A:00    X:00    Y:00    P:6E    SP:FB       BaseAddr:0000    IndirAddr:0000    Implied
C8D0   00   38   B8    SEC    A:00    X:00    Y:00    P:6F    SP:FB       BaseAddr:0000    IndirAddr:0000    Implied
C8D1   00   B8   A9    CLV    A:00    X:00    Y:00    P:2F    SP:FB       BaseAddr:0000    IndirAddr:0000    Implied
C8D2   00   A9   F8    LDA    A:F8    X:00    Y:00    P:AD    SP:FB       BaseAddr:0000    IndirAddr:0000    Immediate
C8D4   00   29   EF    AND    A:E8    X:00    Y:00    P:AD    SP:FB       BaseAddr:0000    IndirAddr:0000    Immediate
C8D6   00   90   0B    BCC    A:E8    X:00    Y:00    P:AD    SP:FB       BaseAddr:0000    IndirAddr:0000    Relative
C8D8   00   10   09    BPL    A:E8    X:00    Y:00    P:AD    SP:FB       BaseAddr:0000    IndirAddr:0000    Relative
C8DA   00   C9   E8    CMP    A:E8    X:00    Y:00    P:AF    SP:FB       BaseAddr:0000    IndirAddr:0000    Immediate
C8DC   00   D0   05    BNE    A:E8    X:00    Y:00    P:AF    SP:FB       BaseAddr:0000    IndirAddr:0000    Relative
C8DE   00   70   03    BVS    A:E8    X:00    Y:00    P:AF    SP:FB       BaseAddr:0000    IndirAddr:0000    Relative
C8E0   4C   E7   C8    JMP    A:E8    X:00    Y:00    P:AF    SP:FB       BaseAddr:C8E7    IndirAddr:0000    Absolute
C8E7   00   EA   18    NOP    A:E8    X:00    Y:00    P:AF    SP:FB       BaseAddr:0000    IndirAddr:0000    Implied
C8E8   00   18   24    CLC    A:E8    X:00    Y:00    P:AE    SP:FB       BaseAddr:0000    IndirAddr:0000    Implied
C8E9   24   01   FF    BIT    A:E8    X:00    Y:00    P:EC    SP:FB       BaseAddr:0001    IndirAddr:0000    Zero_page
C8EB   00   A9   5F    LDA    A:5F    X:00    Y:00    P:6C    SP:FB       BaseAddr:0000    IndirAddr:0000    Immediate
C8ED   00   49   AA    EOR    A:F5    X:00    Y:00    P:EC    SP:FB       BaseAddr:0000    IndirAddr:0000    Immediate
C8EF   00   B0   0B    BCS    A:F5    X:00    Y:00    P:EC    SP:FB       BaseAddr:0000    IndirAddr:0000    Relative
C8F1   00   10   09    BPL    A:F5    X:00    Y:00    P:EC    SP:FB       BaseAddr:0000    IndirAddr:0000    Relative
C8F3   00   C9   F5    CMP    A:F5    X:00    Y:00    P:EF    SP:FB       BaseAddr:0000    IndirAddr:0000    Immediate
C8F5   00   D0   05    BNE    A:F5    X:00    Y:00    P:EF    SP:FB       BaseAddr:0000    IndirAddr:0000    Relative
C8F7   00   50   03    BVC    A:F5    X:00    Y:00    P:EF    SP:FB       BaseAddr:0000    IndirAddr:0000    Relative
C8F9   4C   00   C9    JMP    A:F5    X:00    Y:00    P:EF    SP:FB       BaseAddr:C900    IndirAddr:0000    Absolute
C900   00   EA   38    NOP    A:F5    X:00    Y:00    P:EF    SP:FB       BaseAddr:0000    IndirAddr:0000    Implied
C901   00   38   B8    SEC    A:F5    X:00    Y:00    P:EF    SP:FB       BaseAddr:0000    IndirAddr:0000    Implied
C902   00   B8   A9    CLV    A:F5    X:00    Y:00    P:AF    SP:FB       BaseAddr:0000    IndirAddr:0000    Implied
C903   00   A9   70    LDA    A:70    X:00    Y:00    P:2D    SP:FB       BaseAddr:0000    IndirAddr:0000    Immediate
C905   00   49   70    EOR    A:00    X:00    Y:00    P:2F    SP:FB       BaseAddr:0000    IndirAddr:0000    Immediate
C907   00   D0   09    BNE    A:00    X:00    Y:00    P:2F    SP:FB       BaseAddr:0000    IndirAddr:0000    Relative
C909   00   70   07    BVS    A:00    X:00    Y:00    P:2F    SP:FB       BaseAddr:0000    IndirAddr:0000    Relative
C90B   00   90   05    BCC    A:00    X:00    Y:00    P:2F    SP:FB       BaseAddr:0000    IndirAddr:0000    Relative
C90D   00   30   03    BMI    A:00    X:00    Y:00    P:2F    SP:FB       BaseAddr:0000    IndirAddr:0000    Relative
C90F   4C   16   C9    JMP    A:00    X:00    Y:00    P:2F    SP:FB       BaseAddr:C916    IndirAddr:0000    Absolute
C916   00   EA   18    NOP    A:00    X:00    Y:00    P:2F    SP:FB       BaseAddr:0000    IndirAddr:0000    Implied
C917   00   18   24    CLC    A:00    X:00    Y:00    P:2E    SP:FB       BaseAddr:0000    IndirAddr:0000    Implied
C918   24   01   FF    BIT    A:00    X:00    Y:00    P:EE    SP:FB       BaseAddr:0001    IndirAddr:0000    Zero_page
C91A   00   A9   00    LDA    A:00    X:00    Y:00    P:6E    SP:FB       BaseAddr:0000    IndirAddr:0000    Immediate
C91C   00   69   69    ADC    A:69    X:00    Y:00    P:2C    SP:FB       BaseAddr:0000    IndirAddr:0000    Immediate
C91E   00   30   0B    BMI    A:69    X:00    Y:00    P:2C    SP:FB       BaseAddr:0000    IndirAddr:0000    Relative
C920   00   B0   09    BCS    A:69    X:00    Y:00    P:2C    SP:FB       BaseAddr:0000    IndirAddr:0000    Relative
C922   00   C9   69    CMP    A:69    X:00    Y:00    P:2F    SP:FB       BaseAddr:0000    IndirAddr:0000    Immediate
C924   00   D0   05    BNE    A:69    X:00    Y:00    P:2F    SP:FB       BaseAddr:0000    IndirAddr:0000    Relative
C926   00   70   03    BVS    A:69    X:00    Y:00    P:2F    SP:FB       BaseAddr:0000    IndirAddr:0000    Relative
C928   4C   2F   C9    JMP    A:69    X:00    Y:00    P:2F    SP:FB       BaseAddr:C92F    IndirAddr:0000    Absolute
C92F   00   EA   38    NOP    A:69    X:00    Y:00    P:2F    SP:FB       BaseAddr:0000    IndirAddr:0000    Implied
C930   00   38   F8    SEC    A:69    X:00    Y:00    P:2F    SP:FB       BaseAddr:0000    IndirAddr:0000    Implied
C931   00   F8   24    SED    A:69    X:00    Y:00    P:2F    SP:FB       BaseAddr:0000    IndirAddr:0000    Implied
C932   24   01   FF    BIT    A:69    X:00    Y:00    P:ED    SP:FB       BaseAddr:0001    IndirAddr:0000    Zero_page
C934   00   A9   01    LDA    A:01    X:00    Y:00    P:6D    SP:FB       BaseAddr:0000    IndirAddr:0000    Immediate
C936   00   69   69    ADC    A:6B    X:00    Y:00    P:2C    SP:FB       BaseAddr:0000    IndirAddr:0000    Immediate
C938   00   30   0B    BMI    A:6B    X:00    Y:00    P:2C    SP:FB       BaseAddr:0000    IndirAddr:0000    Relative
C93A   00   B0   09    BCS    A:6B    X:00    Y:00    P:2C    SP:FB       BaseAddr:0000    IndirAddr:0000    Relative
C93C   00   C9   6B    CMP    A:6B    X:00    Y:00    P:2F    SP:FB       BaseAddr:0000    IndirAddr:0000    Immediate
C93E   00   D0   05    BNE    A:6B    X:00    Y:00    P:2F    SP:FB       BaseAddr:0000    IndirAddr:0000    Relative
C940   00   70   03    BVS    A:6B    X:00    Y:00    P:2F    SP:FB       BaseAddr:0000    IndirAddr:0000    Relative
C942   4C   49   C9    JMP    A:6B    X:00    Y:00    P:2F    SP:FB       BaseAddr:C949    IndirAddr:0000    Absolute
C949   00   EA   D8    NOP    A:6B    X:00    Y:00    P:2F    SP:FB       BaseAddr:0000    IndirAddr:0000    Implied
C94A   00   D8   38    CLD    A:6B    X:00    Y:00    P:27    SP:FB       BaseAddr:0000    IndirAddr:0000    Implied
C94B   00   38   B8    SEC    A:6B    X:00    Y:00    P:27    SP:FB       BaseAddr:0000    IndirAddr:0000    Implied
C94C   00   B8   A9    CLV    A:6B    X:00    Y:00    P:27    SP:FB       BaseAddr:0000    IndirAddr:0000    Implied
C94D   00   A9   7F    LDA    A:7F    X:00    Y:00    P:25    SP:FB       BaseAddr:0000    IndirAddr:0000    Immediate
C94F   00   69   7F    ADC    A:FF    X:00    Y:00    P:E5    SP:FB       BaseAddr:0000    IndirAddr:0000    Immediate
C951   00   10   0B    BPL    A:FF    X:00    Y:00    P:E5    SP:FB       BaseAddr:0000    IndirAddr:0000    Relative
C953   00   B0   09    BCS    A:FF    X:00    Y:00    P:E5    SP:FB       BaseAddr:0000    IndirAddr:0000    Relative
C95E   00   A2   20    LDX    A:FF    X:20    Y:00    P:65    SP:FB       BaseAddr:0000    IndirAddr:0000    Immediate
C960   00   86   00    STX    A:FF    X:20    Y:00    P:65    SP:FB       BaseAddr:0000    IndirAddr:0000    Zero_page
C962   00   EA   18    NOP    A:FF    X:20    Y:00    P:65    SP:FB       BaseAddr:0000    IndirAddr:0000    Implied
C963   00   18   24    CLC    A:FF    X:20    Y:00    P:64    SP:FB       BaseAddr:0000    IndirAddr:0000    Implied
C964   24   01   FF    BIT    A:FF    X:20    Y:00    P:E4    SP:FB       BaseAddr:0001    IndirAddr:0000    Zero_page
C966   00   A9   7F    LDA    A:7F    X:20    Y:00    P:64    SP:FB       BaseAddr:0000    IndirAddr:0000    Immediate
C968   00   69   80    ADC    A:FF    X:20    Y:00    P:E5    SP:FB       BaseAddr:0000    IndirAddr:0000    Immediate
C96A   00   10   0B    BPL    A:FF    X:20    Y:00    P:E5    SP:FB       BaseAddr:0000    IndirAddr:0000    Relative
C96C   00   B0   09    BCS    A:FF    X:20    Y:00    P:E5    SP:FB       BaseAddr:0000    IndirAddr:0000    Relative
C977   00   A2   21    LDX    A:FF    X:21    Y:00    P:65    SP:FB       BaseAddr:0000    IndirAddr:0000    Immediate
C979   00   86   00    STX    A:FF    X:21    Y:00    P:65    SP:FB       BaseAddr:0000    IndirAddr:0000    Zero_page
C97B   00   EA   38    NOP    A:FF    X:21    Y:00    P:65    SP:FB       BaseAddr:0000    IndirAddr:0000    Implied
C97C   00   38   B8    SEC    A:FF    X:21    Y:00    P:65    SP:FB       BaseAddr:0000    IndirAddr:0000    Implied
C97D   00   B8   A9    CLV    A:FF    X:21    Y:00    P:25    SP:FB       BaseAddr:0000    IndirAddr:0000    Implied
C97E   00   A9   7F    LDA    A:7F    X:21    Y:00    P:25    SP:FB       BaseAddr:0000    IndirAddr:0000    Immediate
C980   00   69   80    ADC    A:00    X:21    Y:00    P:26    SP:FB       BaseAddr:0000    IndirAddr:0000    Immediate
C982   00   D0   09    BNE    A:00    X:21    Y:00    P:26    SP:FB       BaseAddr:0000    IndirAddr:0000    Relative
C984   00   30   07    BMI    A:00    X:21    Y:00    P:26    SP:FB       BaseAddr:0000    IndirAddr:0000    Relative
C986   00   70   05    BVS    A:00    X:21    Y:00    P:26    SP:FB       BaseAddr:0000    IndirAddr:0000    Relative
C988   00   90   03    BCC    A:00    X:21    Y:00    P:26    SP:FB       BaseAddr:0000    IndirAddr:0000    Relative
C98D   00   A2   22    LDX    A:00    X:22    Y:00    P:24    SP:FB       BaseAddr:0000    IndirAddr:0000    Immediate
C98F   00   86   00    STX    A:00    X:22    Y:00    P:24    SP:FB       BaseAddr:0000    IndirAddr:0000    Zero_page
C991   00   EA   38    NOP    A:00    X:22    Y:00    P:24    SP:FB       BaseAddr:0000    IndirAddr:0000    Implied
C992   00   38   B8    SEC    A:00    X:22    Y:00    P:25    SP:FB       BaseAddr:0000    IndirAddr:0000    Implied
C993   00   B8   A9    CLV    A:00    X:22    Y:00    P:25    SP:FB       BaseAddr:0000    IndirAddr:0000    Implied
C994   00   A9   9F    LDA    A:9F    X:22    Y:00    P:A5    SP:FB       BaseAddr:0000    IndirAddr:0000    Immediate
C996   00   F0   09    BEQ    A:9F    X:22    Y:00    P:A5    SP:FB       BaseAddr:0000    IndirAddr:0000    Relative
C998   00   10   07    BPL    A:9F    X:22    Y:00    P:A5    SP:FB       BaseAddr:0000    IndirAddr:0000    Relative
C99A   00   70   05    BVS    A:9F    X:22    Y:00    P:A5    SP:FB       BaseAddr:0000    IndirAddr:0000    Relative
C99C   00   90   03    BCC    A:9F    X:22    Y:00    P:A5    SP:FB       BaseAddr:0000    IndirAddr:0000    Relative
C99E   4C   A5   C9    JMP    A:9F    X:22    Y:00    P:A5    SP:FB       BaseAddr:C9A5    IndirAddr:0000    Absolute
C9A5   00   EA   18    NOP    A:9F    X:22    Y:00    P:A5    SP:FB       BaseAddr:0000    IndirAddr:0000    Implied
C9A6   00   18   24    CLC    A:9F    X:22    Y:00    P:A4    SP:FB       BaseAddr:0000    IndirAddr:0000    Implied
C9A7   24   01   FF    BIT    A:9F    X:22    Y:00    P:E4    SP:FB       BaseAddr:0001    IndirAddr:0000    Zero_page
C9A9   00   A9   00    LDA    A:00    X:22    Y:00    P:66    SP:FB       BaseAddr:0000    IndirAddr:0000    Immediate
C9AB   00   D0   09    BNE    A:00    X:22    Y:00    P:66    SP:FB       BaseAddr:0000    IndirAddr:0000    Relative
C9AD   00   30   07    BMI    A:00    X:22    Y:00    P:66    SP:FB       BaseAddr:0000    IndirAddr:0000    Relative
C9AF   00   50   05    BVC    A:00    X:22    Y:00    P:66    SP:FB       BaseAddr:0000    IndirAddr:0000    Relative
C9B1   00   B0   03    BCS    A:00    X:22    Y:00    P:66    SP:FB       BaseAddr:0000    IndirAddr:0000    Relative
C9B3   4C   BA   C9    JMP    A:00    X:22    Y:00    P:66    SP:FB       BaseAddr:C9BA    IndirAddr:0000    Absolute
C9BA   00   EA   24    NOP    A:00    X:22    Y:00    P:66    SP:FB       BaseAddr:0000    IndirAddr:0000    Implied
C9BB   24   01   FF    BIT    A:00    X:22    Y:00    P:E6    SP:FB       BaseAddr:0001    IndirAddr:0000    Zero_page
C9BD   00   A9   40    LDA    A:40    X:22    Y:00    P:64    SP:FB       BaseAddr:0000    IndirAddr:0000    Immediate
C9BF   00   C9   40    CMP    A:40    X:22    Y:00    P:67    SP:FB       BaseAddr:0000    IndirAddr:0000    Immediate
C9C1   00   30   09    BMI    A:40    X:22    Y:00    P:67    SP:FB       BaseAddr:0000    IndirAddr:0000    Relative
C9C3   00   90   07    BCC    A:40    X:22    Y:00    P:67    SP:FB       BaseAddr:0000    IndirAddr:0000    Relative
C9C5   00   D0   05    BNE    A:40    X:22    Y:00    P:67    SP:FB       BaseAddr:0000    IndirAddr:0000    Relative
C9C7   00   50   03    BVC    A:40    X:22    Y:00    P:67    SP:FB       BaseAddr:0000    IndirAddr:0000    Relative
C9C9   4C   D0   C9    JMP    A:40    X:22    Y:00    P:67    SP:FB       BaseAddr:C9D0    IndirAddr:0000    Absolute
C9D0   00   EA   B8    NOP    A:40    X:22    Y:00    P:67    SP:FB       BaseAddr:0000    IndirAddr:0000    Implied
C9D1   00   B8   C9    CLV    A:40    X:22    Y:00    P:27    SP:FB       BaseAddr:0000    IndirAddr:0000    Implied
C9D2   00   C9   3F    CMP    A:40    X:22    Y:00    P:27    SP:FB       BaseAddr:0000    IndirAddr:0000    Immediate
C9D4   00   F0   09    BEQ    A:40    X:22    Y:00    P:27    SP:FB       BaseAddr:0000    IndirAddr:0000    Relative
C9DF   00   A2   25    LDX    A:40    X:25    Y:00    P:25    SP:FB       BaseAddr:0000    IndirAddr:0000    Immediate
C9E1   00   86   00    STX    A:40    X:25    Y:00    P:25    SP:FB       BaseAddr:0000    IndirAddr:0000    Zero_page
C9E3   00   EA   C9    NOP    A:40    X:25    Y:00    P:25    SP:FB       BaseAddr:0000    IndirAddr:0000    Implied
C9E4   00   C9   41    CMP    A:40    X:25    Y:00    P:A5    SP:FB       BaseAddr:0000    IndirAddr:0000    Immediate
C9E6   00   F0   07    BEQ    A:40    X:25    Y:00    P:A5    SP:FB       BaseAddr:0000    IndirAddr:0000    Relative
C9E8   00   10   05    BPL    A:40    X:25    Y:00    P:A5    SP:FB       BaseAddr:0000    IndirAddr:0000    Relative
C9EA   00   10   03    BPL    A:40    X:25    Y:00    P:A5    SP:FB       BaseAddr:0000    IndirAddr:0000    Relative
C9EC   4C   F3   C9    JMP    A:40    X:25    Y:00    P:A5    SP:FB       BaseAddr:C9F3    IndirAddr:0000    Absolute
C9F3   00   EA   A9    NOP    A:40    X:25    Y:00    P:A5    SP:FB       BaseAddr:0000    IndirAddr:0000    Implied
C9F4   00   A9   80    LDA    A:80    X:25    Y:00    P:A5    SP:FB       BaseAddr:0000    IndirAddr:0000    Immediate
C9F6   00   C9   00    CMP    A:80    X:25    Y:00    P:A5    SP:FB       BaseAddr:0000    IndirAddr:0000    Immediate
C9F8   00   F0   07    BEQ    A:80    X:25    Y:00    P:A5    SP:FB       BaseAddr:0000    IndirAddr:0000    Relative
C9FA   00   10   05    BPL    A:80    X:25    Y:00    P:A5    SP:FB       BaseAddr:0000    IndirAddr:0000    Relative
C9FC   00   90   03    BCC    A:80    X:25    Y:00    P:A5    SP:FB       BaseAddr:0000    IndirAddr:0000    Relative
C9FE   4C   05   CA    JMP    A:80    X:25    Y:00    P:A5    SP:FB       BaseAddr:CA05    IndirAddr:0000    Absolute
CA05   00   EA   C9    NOP    A:80    X:25    Y:00    P:A5    SP:FB       BaseAddr:0000    IndirAddr:0000    Implied
CA06   00   C9   80    CMP    A:80    X:25    Y:00    P:A7    SP:FB       BaseAddr:0000    IndirAddr:0000    Immediate
CA08   00   D0   07    BNE    A:80    X:25    Y:00    P:A7    SP:FB       BaseAddr:0000    IndirAddr:0000    Relative
CA0A   00   30   05    BMI    A:80    X:25    Y:00    P:A7    SP:FB       BaseAddr:0000    IndirAddr:0000    Relative
CA11   00   A2   28    LDX    A:80    X:28    Y:00    P:25    SP:FB       BaseAddr:0000    IndirAddr:0000    Immediate
CA13   00   86   00    STX    A:80    X:28    Y:00    P:25    SP:FB       BaseAddr:0000    IndirAddr:0000    Zero_page
CA15   00   EA   C9    NOP    A:80    X:28    Y:00    P:25    SP:FB       BaseAddr:0000    IndirAddr:0000    Implied
CA16   00   C9   81    CMP    A:80    X:28    Y:00    P:A5    SP:FB       BaseAddr:0000    IndirAddr:0000    Immediate
CA18   00   B0   07    BCS    A:80    X:28    Y:00    P:A5    SP:FB       BaseAddr:0000    IndirAddr:0000    Relative
CA21   00   A2   29    LDX    A:80    X:29    Y:00    P:25    SP:FB       BaseAddr:0000    IndirAddr:0000    Immediate
CA23   00   86   00    STX    A:80    X:29    Y:00    P:25    SP:FB       BaseAddr:0000    IndirAddr:0000    Zero_page
CA25   00   EA   C9    NOP    A:80    X:29    Y:00    P:25    SP:FB       BaseAddr:0000    IndirAddr:0000    Implied
CA26   00   C9   7F    CMP    A:80    X:29    Y:00    P:25    SP:FB       BaseAddr:0000    IndirAddr:0000    Immediate
CA28   00   90   07    BCC    A:80    X:29    Y:00    P:25    SP:FB       BaseAddr:0000    IndirAddr:0000    Relative
CA2A   00   F0   05    BEQ    A:80    X:29    Y:00    P:25    SP:FB       BaseAddr:0000    IndirAddr:0000    Relative
CA2C   00   30   03    BMI    A:80    X:29    Y:00    P:25    SP:FB       BaseAddr:0000    IndirAddr:0000    Relative
CA2E   4C   35   CA    JMP    A:80    X:29    Y:00    P:25    SP:FB       BaseAddr:CA35    IndirAddr:0000    Absolute
CA35   00   EA   24    NOP    A:80    X:29    Y:00    P:25    SP:FB       BaseAddr:0000    IndirAddr:0000    Implied
CA36   24   01   FF    BIT    A:80    X:29    Y:00    P:E5    SP:FB       BaseAddr:0001    IndirAddr:0000    Zero_page
CA38   00   A0   40    LDY    A:80    X:29    Y:40    P:65    SP:FB       BaseAddr:0000    IndirAddr:0000    Immediate
CA3A   00   C0   40    CPY    A:80    X:29    Y:40    P:E7    SP:FB       BaseAddr:0000    IndirAddr:0000    Immediate
CA3C   00   D0   09    BNE    A:80    X:29    Y:40    P:E7    SP:FB       BaseAddr:0000    IndirAddr:0000    Relative
CA3E   00   30   07    BMI    A:80    X:29    Y:40    P:E7    SP:FB       BaseAddr:0000    IndirAddr:0000    Relative
CA47   00   A2   2B    LDX    A:80    X:2B    Y:40    P:65    SP:FB       BaseAddr:0000    IndirAddr:0000    Immediate
CA49   00   86   00    STX    A:80    X:2B    Y:40    P:65    SP:FB       BaseAddr:0000    IndirAddr:0000    Zero_page
CA4B   00   EA   B8    NOP    A:80    X:2B    Y:40    P:65    SP:FB       BaseAddr:0000    IndirAddr:0000    Implied
CA4C   00   B8   C0    CLV    A:80    X:2B    Y:40    P:25    SP:FB       BaseAddr:0000    IndirAddr:0000    Implied
CA4D   00   C0   3F    CPY    A:80    X:2B    Y:40    P:25    SP:FB       BaseAddr:0000    IndirAddr:0000    Immediate
CA4F   00   F0   09    BEQ    A:80    X:2B    Y:40    P:25    SP:FB       BaseAddr:0000    IndirAddr:0000    Relative
CA51   00   30   07    BMI    A:80    X:2B    Y:40    P:25    SP:FB       BaseAddr:0000    IndirAddr:0000    Relative
CA53   00   90   05    BCC    A:80    X:2B    Y:40    P:25    SP:FB       BaseAddr:0000    IndirAddr:0000    Relative
CA55   00   70   03    BVS    A:80    X:2B    Y:40    P:25    SP:FB       BaseAddr:0000    IndirAddr:0000    Relative
CA57   4C   5E   CA    JMP    A:80    X:2B    Y:40    P:25    SP:FB       BaseAddr:CA5E    IndirAddr:0000    Absolute
CA5E   00   EA   C0    NOP    A:80    X:2B    Y:40    P:25    SP:FB       BaseAddr:0000    IndirAddr:0000    Implied
CA5F   00   C0   41    CPY    A:80    X:2B    Y:40    P:A5    SP:FB       BaseAddr:0000    IndirAddr:0000    Immediate
CA61   00   F0   07    BEQ    A:80    X:2B    Y:40    P:A5    SP:FB       BaseAddr:0000    IndirAddr:0000    Relative
CA63   00   10   05    BPL    A:80    X:2B    Y:40    P:A5    SP:FB       BaseAddr:0000    IndirAddr:0000    Relative
CA65   00   10   03    BPL    A:80    X:2B    Y:40    P:A5    SP:FB       BaseAddr:0000    IndirAddr:0000    Relative
CA67   4C   6E   CA    JMP    A:80    X:2B    Y:40    P:A5    SP:FB       BaseAddr:CA6E    IndirAddr:0000    Absolute
CA6E   00   EA   A0    NOP    A:80    X:2B    Y:40    P:A5    SP:FB       BaseAddr:0000    IndirAddr:0000    Implied
CA6F   00   A0   80    LDY    A:80    X:2B    Y:80    P:A5    SP:FB       BaseAddr:0000    IndirAddr:0000    Immediate
CA71   00   C0   00    CPY    A:80    X:2B    Y:80    P:A5    SP:FB       BaseAddr:0000    IndirAddr:0000    Immediate
CA73   00   F0   07    BEQ    A:80    X:2B    Y:80    P:A5    SP:FB       BaseAddr:0000    IndirAddr:0000    Relative
CA75   00   10   05    BPL    A:80    X:2B    Y:80    P:A5    SP:FB       BaseAddr:0000    IndirAddr:0000    Relative
CA77   00   90   03    BCC    A:80    X:2B    Y:80    P:A5    SP:FB       BaseAddr:0000    IndirAddr:0000    Relative
CA79   4C   80   CA    JMP    A:80    X:2B    Y:80    P:A5    SP:FB       BaseAddr:CA80    IndirAddr:0000    Absolute
CA80   00   EA   C0    NOP    A:80    X:2B    Y:80    P:A5    SP:FB       BaseAddr:0000    IndirAddr:0000    Implied
CA81   00   C0   80    CPY    A:80    X:2B    Y:80    P:A7    SP:FB       BaseAddr:0000    IndirAddr:0000    Immediate
CA83   00   D0   07    BNE    A:80    X:2B    Y:80    P:A7    SP:FB       BaseAddr:0000    IndirAddr:0000    Relative
CA85   00   30   05    BMI    A:80    X:2B    Y:80    P:A7    SP:FB       BaseAddr:0000    IndirAddr:0000    Relative
CA8C   00   A2   2F    LDX    A:80    X:2F    Y:80    P:25    SP:FB       BaseAddr:0000    IndirAddr:0000    Immediate
CA8E   00   86   00    STX    A:80    X:2F    Y:80    P:25    SP:FB       BaseAddr:0000    IndirAddr:0000    Zero_page
CA90   00   EA   C0    NOP    A:80    X:2F    Y:80    P:25    SP:FB       BaseAddr:0000    IndirAddr:0000    Implied
CA91   00   C0   81    CPY    A:80    X:2F    Y:80    P:25    SP:FB       BaseAddr:0000    IndirAddr:0000    Immediate
CA93   00   B0   07    BCS    A:80    X:2F    Y:80    P:25    SP:FB       BaseAddr:0000    IndirAddr:0000    Relative
CA9C   00   A2   30    LDX    A:80    X:30    Y:80    P:25    SP:FB       BaseAddr:0000    IndirAddr:0000    Immediate
CA9E   00   86   00    STX    A:80    X:30    Y:80    P:25    SP:FB       BaseAddr:0000    IndirAddr:0000    Zero_page
CAA0   00   EA   C0    NOP    A:80    X:30    Y:80    P:25    SP:FB       BaseAddr:0000    IndirAddr:0000    Implied
CAA1   00   C0   7F    CPY    A:80    X:30    Y:80    P:A5    SP:FB       BaseAddr:0000    IndirAddr:0000    Immediate
CAA3   00   90   07    BCC    A:80    X:30    Y:80    P:A5    SP:FB       BaseAddr:0000    IndirAddr:0000    Relative
CAA5   00   F0   05    BEQ    A:80    X:30    Y:80    P:A5    SP:FB       BaseAddr:0000    IndirAddr:0000    Relative
CAA7   00   30   03    BMI    A:80    X:30    Y:80    P:A5    SP:FB       BaseAddr:0000    IndirAddr:0000    Relative
CAAC   00   A2   31    LDX    A:80    X:31    Y:80    P:25    SP:FB       BaseAddr:0000    IndirAddr:0000    Immediate
CAAE   00   86   00    STX    A:80    X:31    Y:80    P:25    SP:FB       BaseAddr:0000    IndirAddr:0000    Zero_page
CAB0   00   EA   24    NOP    A:80    X:31    Y:80    P:25    SP:FB       BaseAddr:0000    IndirAddr:0000    Implied
CAB1   24   01   FF    BIT    A:80    X:31    Y:80    P:E5    SP:FB       BaseAddr:0001    IndirAddr:0000    Zero_page
CAB3   00   A2   40    LDX    A:80    X:40    Y:80    P:65    SP:FB       BaseAddr:0000    IndirAddr:0000    Immediate
CAB5   00   E0   40    CPX    A:80    X:40    Y:80    P:E7    SP:FB       BaseAddr:0000    IndirAddr:0000    Immediate
CAB7   00   D0   09    BNE    A:80    X:40    Y:80    P:E7    SP:FB       BaseAddr:0000    IndirAddr:0000    Relative
CAB9   00   30   07    BMI    A:80    X:40    Y:80    P:E7    SP:FB       BaseAddr:0000    IndirAddr:0000    Relative
CAC2   00   A9   32    LDA    A:32    X:40    Y:80    P:65    SP:FB       BaseAddr:0000    IndirAddr:0000    Immediate
CAC4   00   85   00    STA    A:32    X:40    Y:80    P:65    SP:FB       BaseAddr:0000    IndirAddr:0000    Zero_page
CAC6   00   EA   B8    NOP    A:32    X:40    Y:80    P:65    SP:FB       BaseAddr:0000    IndirAddr:0000    Implied
CAC7   00   B8   E0    CLV    A:32    X:40    Y:80    P:25    SP:FB       BaseAddr:0000    IndirAddr:0000    Implied
CAC8   00   E0   3F    CPX    A:32    X:40    Y:80    P:25    SP:FB       BaseAddr:0000    IndirAddr:0000    Immediate
CACA   00   F0   09    BEQ    A:32    X:40    Y:80    P:25    SP:FB       BaseAddr:0000    IndirAddr:0000    Relative
CACC   00   30   07    BMI    A:32    X:40    Y:80    P:25    SP:FB       BaseAddr:0000    IndirAddr:0000    Relative
CACE   00   90   05    BCC    A:32    X:40    Y:80    P:25    SP:FB       BaseAddr:0000    IndirAddr:0000    Relative
CAD0   00   70   03    BVS    A:32    X:40    Y:80    P:25    SP:FB       BaseAddr:0000    IndirAddr:0000    Relative
CAD2   4C   D9   CA    JMP    A:32    X:40    Y:80    P:25    SP:FB       BaseAddr:CAD9    IndirAddr:0000    Absolute
CAD9   00   EA   E0    NOP    A:32    X:40    Y:80    P:25    SP:FB       BaseAddr:0000    IndirAddr:0000    Implied
CADA   00   E0   41    CPX    A:32    X:40    Y:80    P:A5    SP:FB       BaseAddr:0000    IndirAddr:0000    Immediate
CADC   00   F0   07    BEQ    A:32    X:40    Y:80    P:A5    SP:FB       BaseAddr:0000    IndirAddr:0000    Relative
CADE   00   10   05    BPL    A:32    X:40    Y:80    P:A5    SP:FB       BaseAddr:0000    IndirAddr:0000    Relative
CAE0   00   10   03    BPL    A:32    X:40    Y:80    P:A5    SP:FB       BaseAddr:0000    IndirAddr:0000    Relative
CAE2   4C   E9   CA    JMP    A:32    X:40    Y:80    P:A5    SP:FB       BaseAddr:CAE9    IndirAddr:0000    Absolute
CAE9   00   EA   A2    NOP    A:32    X:40    Y:80    P:A5    SP:FB       BaseAddr:0000    IndirAddr:0000    Implied
CAEA   00   A2   80    LDX    A:32    X:80    Y:80    P:A5    SP:FB       BaseAddr:0000    IndirAddr:0000    Immediate
CAEC   00   E0   00    CPX    A:32    X:80    Y:80    P:A5    SP:FB       BaseAddr:0000    IndirAddr:0000    Immediate
CAEE   00   F0   07    BEQ    A:32    X:80    Y:80    P:A5    SP:FB       BaseAddr:0000    IndirAddr:0000    Relative
CAF0   00   10   05    BPL    A:32    X:80    Y:80    P:A5    SP:FB       BaseAddr:0000    IndirAddr:0000    Relative
CAF2   00   90   03    BCC    A:32    X:80    Y:80    P:A5    SP:FB       BaseAddr:0000    IndirAddr:0000    Relative
CAF4   4C   FB   CA    JMP    A:32    X:80    Y:80    P:A5    SP:FB       BaseAddr:CAFB    IndirAddr:0000    Absolute
CAFB   00   EA   E0    NOP    A:32    X:80    Y:80    P:A5    SP:FB       BaseAddr:0000    IndirAddr:0000    Implied
CAFC   00   E0   80    CPX    A:32    X:80    Y:80    P:A7    SP:FB       BaseAddr:0000    IndirAddr:0000    Immediate
CAFE   00   D0   07    BNE    A:32    X:80    Y:80    P:A7    SP:FB       BaseAddr:0000    IndirAddr:0000    Relative
CB00   00   30   05    BMI    A:32    X:80    Y:80    P:A7    SP:FB       BaseAddr:0000    IndirAddr:0000    Relative
CB07   00   A9   36    LDA    A:36    X:80    Y:80    P:25    SP:FB       BaseAddr:0000    IndirAddr:0000    Immediate
CB09   00   85   00    STA    A:36    X:80    Y:80    P:25    SP:FB       BaseAddr:0000    IndirAddr:0000    Zero_page
CB0B   00   EA   E0    NOP    A:36    X:80    Y:80    P:25    SP:FB       BaseAddr:0000    IndirAddr:0000    Implied
CB0C   00   E0   81    CPX    A:36    X:80    Y:80    P:25    SP:FB       BaseAddr:0000    IndirAddr:0000    Immediate
CB0E   00   B0   07    BCS    A:36    X:80    Y:80    P:25    SP:FB       BaseAddr:0000    IndirAddr:0000    Relative
CB17   00   A9   37    LDA    A:37    X:80    Y:80    P:25    SP:FB       BaseAddr:0000    IndirAddr:0000    Immediate
CB19   00   85   00    STA    A:37    X:80    Y:80    P:25    SP:FB       BaseAddr:0000    IndirAddr:0000    Zero_page
CB1B   00   EA   E0    NOP    A:37    X:80    Y:80    P:25    SP:FB       BaseAddr:0000    IndirAddr:0000    Implied
CB1C   00   E0   7F    CPX    A:37    X:80    Y:80    P:A5    SP:FB       BaseAddr:0000    IndirAddr:0000    Immediate
CB1E   00   90   07    BCC    A:37    X:80    Y:80    P:A5    SP:FB       BaseAddr:0000    IndirAddr:0000    Relative
CB20   00   F0   05    BEQ    A:37    X:80    Y:80    P:A5    SP:FB       BaseAddr:0000    IndirAddr:0000    Relative
CB22   00   30   03    BMI    A:37    X:80    Y:80    P:A5    SP:FB       BaseAddr:0000    IndirAddr:0000    Relative
CB27   00   A9   38    LDA    A:38    X:80    Y:80    P:25    SP:FB       BaseAddr:0000    IndirAddr:0000    Immediate
CB29   00   85   00    STA    A:38    X:80    Y:80    P:25    SP:FB       BaseAddr:0000    IndirAddr:0000    Zero_page
CB2B   00   EA   38    NOP    A:38    X:80    Y:80    P:25    SP:FB       BaseAddr:0000    IndirAddr:0000    Implied
CB2C   00   38   B8    SEC    A:38    X:80    Y:80    P:25    SP:FB       BaseAddr:0000    IndirAddr:0000    Implied
CB2D   00   B8   A2    CLV    A:38    X:80    Y:80    P:25    SP:FB       BaseAddr:0000    IndirAddr:0000    Implied
CB2E   00   A2   9F    LDX    A:38    X:9F    Y:80    P:A5    SP:FB       BaseAddr:0000    IndirAddr:0000    Immediate
CB30   00   F0   09    BEQ    A:38    X:9F    Y:80    P:A5    SP:FB       BaseAddr:0000    IndirAddr:0000    Relative
CB32   00   10   07    BPL    A:38    X:9F    Y:80    P:A5    SP:FB       BaseAddr:0000    IndirAddr:0000    Relative
CB34   00   70   05    BVS    A:38    X:9F    Y:80    P:A5    SP:FB       BaseAddr:0000    IndirAddr:0000    Relative
CB36   00   90   03    BCC    A:38    X:9F    Y:80    P:A5    SP:FB       BaseAddr:0000    IndirAddr:0000    Relative
CB38   4C   3F   CB    JMP    A:38    X:9F    Y:80    P:A5    SP:FB       BaseAddr:CB3F    IndirAddr:0000    Absolute
CB3F   00   EA   18    NOP    A:38    X:9F    Y:80    P:A5    SP:FB       BaseAddr:0000    IndirAddr:0000    Implied
CB40   00   18   24    CLC    A:38    X:9F    Y:80    P:A4    SP:FB       BaseAddr:0000    IndirAddr:0000    Implied
CB41   24   01   FF    BIT    A:38    X:9F    Y:80    P:E4    SP:FB       BaseAddr:0001    IndirAddr:0000    Zero_page
CB43   00   A2   00    LDX    A:38    X:00    Y:80    P:66    SP:FB       BaseAddr:0000    IndirAddr:0000    Immediate
CB45   00   D0   09    BNE    A:38    X:00    Y:80    P:66    SP:FB       BaseAddr:0000    IndirAddr:0000    Relative
CB47   00   30   07    BMI    A:38    X:00    Y:80    P:66    SP:FB       BaseAddr:0000    IndirAddr:0000    Relative
CB49   00   50   05    BVC    A:38    X:00    Y:80    P:66    SP:FB       BaseAddr:0000    IndirAddr:0000    Relative
CB4B   00   B0   03    BCS    A:38    X:00    Y:80    P:66    SP:FB       BaseAddr:0000    IndirAddr:0000    Relative
CB4D   4C   54   CB    JMP    A:38    X:00    Y:80    P:66    SP:FB       BaseAddr:CB54    IndirAddr:0000    Absolute
CB54   00   EA   38    NOP    A:38    X:00    Y:80    P:66    SP:FB       BaseAddr:0000    IndirAddr:0000    Implied
CB55   00   38   B8    SEC    A:38    X:00    Y:80    P:67    SP:FB       BaseAddr:0000    IndirAddr:0000    Implied
CB56   00   B8   A0    CLV    A:38    X:00    Y:80    P:27    SP:FB       BaseAddr:0000    IndirAddr:0000    Implied
CB57   00   A0   9F    LDY    A:38    X:00    Y:9F    P:A5    SP:FB       BaseAddr:0000    IndirAddr:0000    Immediate
CB59   00   F0   09    BEQ    A:38    X:00    Y:9F    P:A5    SP:FB       BaseAddr:0000    IndirAddr:0000    Relative
CB5B   00   10   07    BPL    A:38    X:00    Y:9F    P:A5    SP:FB       BaseAddr:0000    IndirAddr:0000    Relative
CB5D   00   70   05    BVS    A:38    X:00    Y:9F    P:A5    SP:FB       BaseAddr:0000    IndirAddr:0000    Relative
CB5F   00   90   03    BCC    A:38    X:00    Y:9F    P:A5    SP:FB       BaseAddr:0000    IndirAddr:0000    Relative
CB61   4C   68   CB    JMP    A:38    X:00    Y:9F    P:A5    SP:FB       BaseAddr:CB68    IndirAddr:0000    Absolute
CB68   00   EA   18    NOP    A:38    X:00    Y:9F    P:A5    SP:FB       BaseAddr:0000    IndirAddr:0000    Implied
CB69   00   18   24    CLC    A:38    X:00    Y:9F    P:A4    SP:FB       BaseAddr:0000    IndirAddr:0000    Implied
CB6A   24   01   FF    BIT    A:38    X:00    Y:9F    P:E4    SP:FB       BaseAddr:0001    IndirAddr:0000    Zero_page
CB6C   00   A0   00    LDY    A:38    X:00    Y:00    P:66    SP:FB       BaseAddr:0000    IndirAddr:0000    Immediate
CB6E   00   D0   09    BNE    A:38    X:00    Y:00    P:66    SP:FB       BaseAddr:0000    IndirAddr:0000    Relative
CB70   00   30   07    BMI    A:38    X:00    Y:00    P:66    SP:FB       BaseAddr:0000    IndirAddr:0000    Relative
CB72   00   50   05    BVC    A:38    X:00    Y:00    P:66    SP:FB       BaseAddr:0000    IndirAddr:0000    Relative
CB74   00   B0   03    BCS    A:38    X:00    Y:00    P:66    SP:FB       BaseAddr:0000    IndirAddr:0000    Relative
CB76   4C   7D   CB    JMP    A:38    X:00    Y:00    P:66    SP:FB       BaseAddr:CB7D    IndirAddr:0000    Absolute
CB7D   00   EA   A9    NOP    A:38    X:00    Y:00    P:66    SP:FB       BaseAddr:0000    IndirAddr:0000    Implied
CB7E   00   A9   55    LDA    A:55    X:00    Y:00    P:64    SP:FB       BaseAddr:0000    IndirAddr:0000    Immediate
CB80   00   A2   AA    LDX    A:55    X:AA    Y:00    P:E4    SP:FB       BaseAddr:0000    IndirAddr:0000    Immediate
CB82   00   A0   33    LDY    A:55    X:AA    Y:33    P:64    SP:FB       BaseAddr:0000    IndirAddr:0000    Immediate
CB84   00   C9   55    CMP    A:55    X:AA    Y:33    P:67    SP:FB       BaseAddr:0000    IndirAddr:0000    Immediate
CB86   00   D0   23    BNE    A:55    X:AA    Y:33    P:67    SP:FB       BaseAddr:0000    IndirAddr:0000    Relative
CB88   00   E0   AA    CPX    A:55    X:AA    Y:33    P:67    SP:FB       BaseAddr:0000    IndirAddr:0000    Immediate
CB8A   00   D0   1F    BNE    A:55    X:AA    Y:33    P:67    SP:FB       BaseAddr:0000    IndirAddr:0000    Relative
CB8C   00   C0   33    CPY    A:55    X:AA    Y:33    P:67    SP:FB       BaseAddr:0000    IndirAddr:0000    Immediate
CB8E   00   D0   1B    BNE    A:55    X:AA    Y:33    P:67    SP:FB       BaseAddr:0000    IndirAddr:0000    Relative
CB90   00   C9   55    CMP    A:55    X:AA    Y:33    P:67    SP:FB       BaseAddr:0000    IndirAddr:0000    Immediate
CB92   00   D0   17    BNE    A:55    X:AA    Y:33    P:67    SP:FB       BaseAddr:0000    IndirAddr:0000    Relative
CB94   00   E0   AA    CPX    A:55    X:AA    Y:33    P:67    SP:FB       BaseAddr:0000    IndirAddr:0000    Immediate
CB96   00   D0   13    BNE    A:55    X:AA    Y:33    P:67    SP:FB       BaseAddr:0000    IndirAddr:0000    Relative
CB98   00   C0   33    CPY    A:55    X:AA    Y:33    P:67    SP:FB       BaseAddr:0000    IndirAddr:0000    Immediate
CB9A   00   D0   0F    BNE    A:55    X:AA    Y:33    P:67    SP:FB       BaseAddr:0000    IndirAddr:0000    Relative
CB9C   00   C9   56    CMP    A:55    X:AA    Y:33    P:E7    SP:FB       BaseAddr:0000    IndirAddr:0000    Immediate
CB9E   00   F0   0B    BEQ    A:55    X:AA    Y:33    P:E7    SP:FB       BaseAddr:0000    IndirAddr:0000    Relative
CBAB   00   A2   3D    LDX    A:55    X:3D    Y:33    P:65    SP:FB       BaseAddr:0000    IndirAddr:0000    Immediate
CBAD   00   86   00    STX    A:55    X:3D    Y:33    P:65    SP:FB       BaseAddr:0000    IndirAddr:0000    Zero_page
CBAF   00   A0   71    LDY    A:55    X:3D    Y:71    P:65    SP:FB       BaseAddr:0000    IndirAddr:0000    Immediate
CBB1   31   FF   F9    JSR    A:55    X:3D    Y:71    P:65    SP:F9       BaseAddr:F931    IndirAddr:0000    Absolute
F931   24   01   FF    BIT    A:55    X:3D    Y:71    P:E5    SP:F9       BaseAddr:0001    IndirAddr:0000    Zero_page
F933   00   A9   40    LDA    A:40    X:3D    Y:71    P:65    SP:F9       BaseAddr:0000    IndirAddr:0000    Immediate
F935   00   38   60    SEC    A:40    X:3D    Y:71    P:65    SP:F9       BaseAddr:0000    IndirAddr:0000    Implied
F936   B2   CB   F9    RTS    A:40    X:3D    Y:71    P:65    SP:FB       BaseAddr:0000    IndirAddr:0000    Implied
CBB4   00   E9   40    SBC    A:00    X:3D    Y:71    P:26    SP:FB       BaseAddr:0000    IndirAddr:0000    Immediate
CBB6   37   CB   F9    JSR    A:00    X:3D    Y:71    P:26    SP:F9       BaseAddr:F937    IndirAddr:0000    Absolute
F937   00   30   0B    BMI    A:00    X:3D    Y:71    P:26    SP:F9       BaseAddr:0000    IndirAddr:0000    Relative
F939   00   90   09    BCC    A:00    X:3D    Y:71    P:26    SP:F9       BaseAddr:0000    IndirAddr:0000    Relative
F944   00   84   00    STY    A:00    X:3D    Y:71    P:26    SP:F9       BaseAddr:0000    IndirAddr:0000    Zero_page
F946   B7   CB   F9    RTS    A:00    X:3D    Y:71    P:26    SP:FB       BaseAddr:0000    IndirAddr:0000    Implied
CBB9   00   C8   20    INY    A:00    X:3D    Y:72    P:24    SP:FB       BaseAddr:0000    IndirAddr:0000    Implied
CBBA   47   CB   F9    JSR    A:00    X:3D    Y:72    P:24    SP:F9       BaseAddr:F947    IndirAddr:0000    Absolute
F947   00   B8   38    CLV    A:00    X:3D    Y:72    P:24    SP:F9       BaseAddr:0000    IndirAddr:0000    Implied
F948   00   38   A9    SEC    A:00    X:3D    Y:72    P:25    SP:F9       BaseAddr:0000    IndirAddr:0000    Implied
F949   00   A9   40    LDA    A:40    X:3D    Y:72    P:25    SP:F9       BaseAddr:0000    IndirAddr:0000    Immediate
F94B   BB   CB   F9    RTS    A:40    X:3D    Y:72    P:25    SP:FB       BaseAddr:0000    IndirAddr:0000    Implied
CBBD   00   E9   3F    SBC    A:01    X:3D    Y:72    P:24    SP:FB       BaseAddr:0000    IndirAddr:0000    Immediate
CBBF   4C   CB   F9    JSR    A:01    X:3D    Y:72    P:24    SP:F9       BaseAddr:F94C    IndirAddr:0000    Absolute
F94C   00   F0   0B    BEQ    A:01    X:3D    Y:72    P:24    SP:F9       BaseAddr:0000    IndirAddr:0000    Relative
F94E   00   30   09    BMI    A:01    X:3D    Y:72    P:24    SP:F9       BaseAddr:0000    IndirAddr:0000    Relative
F950   00   90   07    BCC    A:01    X:3D    Y:72    P:24    SP:F9       BaseAddr:0000    IndirAddr:0000    Relative
F959   00   84   00    STY    A:01    X:3D    Y:72    P:24    SP:F9       BaseAddr:0000    IndirAddr:0000    Zero_page
F95B   C0   CB   F9    RTS    A:01    X:3D    Y:72    P:24    SP:FB       BaseAddr:0000    IndirAddr:0000    Implied
CBC2   00   C8   20    INY    A:01    X:3D    Y:73    P:24    SP:FB       BaseAddr:0000    IndirAddr:0000    Implied
CBC3   5C   CB   F9    JSR    A:01    X:3D    Y:73    P:24    SP:F9       BaseAddr:F95C    IndirAddr:0000    Absolute
F95C   00   A9   40    LDA    A:40    X:3D    Y:73    P:24    SP:F9       BaseAddr:0000    IndirAddr:0000    Immediate
F95E   00   38   24    SEC    A:40    X:3D    Y:73    P:25    SP:F9       BaseAddr:0000    IndirAddr:0000    Implied
F95F   24   01   FF    BIT    A:40    X:3D    Y:73    P:E5    SP:F9       BaseAddr:0001    IndirAddr:0000    Zero_page
F961   C4   CB   F9    RTS    A:40    X:3D    Y:73    P:E5    SP:FB       BaseAddr:0000    IndirAddr:0000    Implied
CBC6   00   E9   41    SBC    A:FF    X:3D    Y:73    P:E5    SP:FB       BaseAddr:0000    IndirAddr:0000    Immediate
CBC8   62   CB   F9    JSR    A:FF    X:3D    Y:73    P:E5    SP:F9       BaseAddr:F962    IndirAddr:0000    Absolute
F962   00   B0   0B    BCS    A:FF    X:3D    Y:73    P:E5    SP:F9       BaseAddr:0000    IndirAddr:0000    Relative
F96F   00   84   00    STY    A:FF    X:3D    Y:73    P:E5    SP:F9       BaseAddr:0000    IndirAddr:0000    Zero_page
F971   C9   CB   F9    RTS    A:FF    X:3D    Y:73    P:E5    SP:FB       BaseAddr:0000    IndirAddr:0000    Implied
CBCB   00   C8   20    INY    A:FF    X:3D    Y:74    P:65    SP:FB       BaseAddr:0000    IndirAddr:0000    Implied
CBCC   72   CB   F9    JSR    A:FF    X:3D    Y:74    P:65    SP:F9       BaseAddr:F972    IndirAddr:0000    Absolute
F972   00   18   A9    CLC    A:FF    X:3D    Y:74    P:64    SP:F9       BaseAddr:0000    IndirAddr:0000    Implied
F973   00   A9   80    LDA    A:80    X:3D    Y:74    P:E4    SP:F9       BaseAddr:0000    IndirAddr:0000    Immediate
F975   CD   CB   F9    RTS    A:80    X:3D    Y:74    P:E4    SP:FB       BaseAddr:0000    IndirAddr:0000    Implied
CBCF   00   E9   00    SBC    A:7F    X:3D    Y:74    P:65    SP:FB       BaseAddr:0000    IndirAddr:0000    Immediate
CBD1   76   CB   F9    JSR    A:7F    X:3D    Y:74    P:65    SP:F9       BaseAddr:F976    IndirAddr:0000    Absolute
F976   00   90   05    BCC    A:7F    X:3D    Y:74    P:65    SP:F9       BaseAddr:0000    IndirAddr:0000    Relative
F978   00   C9   7F    CMP    A:7F    X:3D    Y:74    P:67    SP:F9       BaseAddr:0000    IndirAddr:0000    Immediate
F97A   00   D0   01    BNE    A:7F    X:3D    Y:74    P:67    SP:F9       BaseAddr:0000    IndirAddr:0000    Relative
F97C   D2   CB   F9    RTS    A:7F    X:3D    Y:74    P:67    SP:FB       BaseAddr:0000    IndirAddr:0000    Implied
CBD4   00   C8   20    INY    A:7F    X:3D    Y:75    P:65    SP:FB       BaseAddr:0000    IndirAddr:0000    Implied
CBD5   80   CB   F9    JSR    A:7F    X:3D    Y:75    P:65    SP:F9       BaseAddr:F980    IndirAddr:0000    Absolute
F980   00   38   A9    SEC    A:7F    X:3D    Y:75    P:65    SP:F9       BaseAddr:0000    IndirAddr:0000    Implied
F981   00   A9   81    LDA    A:81    X:3D    Y:75    P:E5    SP:F9       BaseAddr:0000    IndirAddr:0000    Immediate
F983   D6   CB   F9    RTS    A:81    X:3D    Y:75    P:E5    SP:FB       BaseAddr:0000    IndirAddr:0000    Implied
CBD8   00   E9   7F    SBC    A:02    X:3D    Y:75    P:24    SP:FB       BaseAddr:0000    IndirAddr:0000    Immediate
CBDA   84   CB   F9    JSR    A:02    X:3D    Y:75    P:24    SP:F9       BaseAddr:F984    IndirAddr:0000    Absolute
F984   00   50   07    BVC    A:02    X:3D    Y:75    P:24    SP:F9       BaseAddr:0000    IndirAddr:0000    Relative
F98D   00   84   00    STY    A:02    X:3D    Y:75    P:24    SP:F9       BaseAddr:0000    IndirAddr:0000    Zero_page
F98F   DB   CB   F9    RTS    A:02    X:3D    Y:75    P:24    SP:FB       BaseAddr:0000    IndirAddr:0000    Implied
CBDD   04   C6   C8    RTS    A:02    X:3D    Y:75    P:24    SP:FD       BaseAddr:0000    IndirAddr:0000    Implied
C606   DE   C6   CB    JSR    A:02    X:3D    Y:75    P:24    SP:FB       BaseAddr:CBDE    IndirAddr:0000    Absolute
CBDE   00   EA   A9    NOP    A:02    X:3D    Y:75    P:24    SP:FB       BaseAddr:0000    IndirAddr:0000    Implied
CBDF   00   A9   FF    LDA    A:FF    X:3D    Y:75    P:A4    SP:FB       BaseAddr:0000    IndirAddr:0000    Immediate
CBE1   00   85   01    STA    A:FF    X:3D    Y:75    P:A4    SP:FB       BaseAddr:0001    IndirAddr:0000    Zero_page
CBE3   00   A9   44    LDA    A:44    X:3D    Y:75    P:24    SP:FB       BaseAddr:0000    IndirAddr:0000    Immediate
CBE5   00   A2   55    LDX    A:44    X:55    Y:75    P:24    SP:FB       BaseAddr:0000    IndirAddr:0000    Immediate
CBE7   00   A0   66    LDY    A:44    X:55    Y:66    P:24    SP:FB       BaseAddr:0000    IndirAddr:0000    Immediate
CBE9   00   E8   88    INX    A:44    X:56    Y:66    P:24    SP:FB       BaseAddr:0000    IndirAddr:0000    Implied
CBEA   00   88   E0    DEY    A:44    X:56    Y:65    P:24    SP:FB       BaseAddr:0000    IndirAddr:0000    Implied
CBEB   00   E0   56    CPX    A:44    X:56    Y:65    P:A7    SP:FB       BaseAddr:0000    IndirAddr:0000    Immediate
CBED   00   D0   21    BNE    A:44    X:56    Y:65    P:A7    SP:FB       BaseAddr:0000    IndirAddr:0000    Relative
CBEF   00   C0   65    CPY    A:44    X:56    Y:65    P:A7    SP:FB       BaseAddr:0000    IndirAddr:0000    Immediate
CBF1   00   D0   1D    BNE    A:44    X:56    Y:65    P:A7    SP:FB       BaseAddr:0000    IndirAddr:0000    Relative
CBF3   00   E8   E8    INX    A:44    X:57    Y:65    P:25    SP:FB       BaseAddr:0000    IndirAddr:0000    Implied
CBF4   00   E8   88    INX    A:44    X:58    Y:65    P:25    SP:FB       BaseAddr:0000    IndirAddr:0000    Implied
CBF5   00   88   88    DEY    A:44    X:58    Y:64    P:25    SP:FB       BaseAddr:0000    IndirAddr:0000    Implied
CBF6   00   88   E0    DEY    A:44    X:58    Y:63    P:25    SP:FB       BaseAddr:0000    IndirAddr:0000    Implied
CBF7   00   E0   58    CPX    A:44    X:58    Y:63    P:A7    SP:FB       BaseAddr:0000    IndirAddr:0000    Immediate
CBF9   00   D0   15    BNE    A:44    X:58    Y:63    P:A7    SP:FB       BaseAddr:0000    IndirAddr:0000    Relative
CBFB   00   C0   63    CPY    A:44    X:58    Y:63    P:A7    SP:FB       BaseAddr:0000    IndirAddr:0000    Immediate
CBFD   00   D0   11    BNE    A:44    X:58    Y:63    P:A7    SP:FB       BaseAddr:0000    IndirAddr:0000    Relative
CBFF   00   CA   C8    DEX    A:44    X:57    Y:63    P:25    SP:FB       BaseAddr:0000    IndirAddr:0000    Implied
CC00   00   C8   E0    INY    A:44    X:57    Y:64    P:25    SP:FB       BaseAddr:0000    IndirAddr:0000    Implied
CC01   00   E0   57    CPX    A:44    X:57    Y:64    P:A7    SP:FB       BaseAddr:0000    IndirAddr:0000    Immediate
CC03   00   D0   0B    BNE    A:44    X:57    Y:64    P:A7    SP:FB       BaseAddr:0000    IndirAddr:0000    Relative
CC05   00   C0   64    CPY    A:44    X:57    Y:64    P:A7    SP:FB       BaseAddr:0000    IndirAddr:0000    Immediate
CC07   00   D0   07    BNE    A:44    X:57    Y:64    P:A7    SP:FB       BaseAddr:0000    IndirAddr:0000    Relative
CC09   00   C9   44    CMP    A:44    X:57    Y:64    P:A7    SP:FB       BaseAddr:0000    IndirAddr:0000    Immediate
CC0B   00   D0   03    BNE    A:44    X:57    Y:64    P:A7    SP:FB       BaseAddr:0000    IndirAddr:0000    Relative
CC0D   4C   14   CC    JMP    A:44    X:57    Y:64    P:A7    SP:FB       BaseAddr:CC14    IndirAddr:0000    Absolute
CC14   00   EA   38    NOP    A:44    X:57    Y:64    P:A7    SP:FB       BaseAddr:0000    IndirAddr:0000    Implied
CC15   00   38   A2    SEC    A:44    X:57    Y:64    P:A7    SP:FB       BaseAddr:0000    IndirAddr:0000    Implied
CC16   00   A2   69    LDX    A:44    X:69    Y:64    P:25    SP:FB       BaseAddr:0000    IndirAddr:0000    Immediate
CC18   00   A9   96    LDA    A:96    X:69    Y:64    P:A5    SP:FB       BaseAddr:0000    IndirAddr:0000    Immediate
CC1A   24   01   FF    BIT    A:96    X:69    Y:64    P:E5    SP:FB       BaseAddr:0001    IndirAddr:0000    Zero_page
CC1C   00   A0   FF    LDY    A:96    X:69    Y:FF    P:E5    SP:FB       BaseAddr:0000    IndirAddr:0000    Immediate
CC1E   00   C8   D0    INY    A:96    X:69    Y:00    P:67    SP:FB       BaseAddr:0000    IndirAddr:0000    Implied
CC1F   00   D0   3D    BNE    A:96    X:69    Y:00    P:67    SP:FB       BaseAddr:0000    IndirAddr:0000    Relative
CC21   00   30   3B    BMI    A:96    X:69    Y:00    P:67    SP:FB       BaseAddr:0000    IndirAddr:0000    Relative
CC23   00   90   39    BCC    A:96    X:69    Y:00    P:67    SP:FB       BaseAddr:0000    IndirAddr:0000    Relative
CC25   00   50   37    BVC    A:96    X:69    Y:00    P:67    SP:FB       BaseAddr:0000    IndirAddr:0000    Relative
CC27   00   C0   00    CPY    A:96    X:69    Y:00    P:67    SP:FB       BaseAddr:0000    IndirAddr:0000    Immediate
CC29   00   D0   33    BNE    A:96    X:69    Y:00    P:67    SP:FB       BaseAddr:0000    IndirAddr:0000    Relative
CC2B   00   C8   F0    INY    A:96    X:69    Y:01    P:65    SP:FB       BaseAddr:0000    IndirAddr:0000    Implied
CC2C   00   F0   30    BEQ    A:96    X:69    Y:01    P:65    SP:FB       BaseAddr:0000    IndirAddr:0000    Relative
CC2E   00   30   2E    BMI    A:96    X:69    Y:01    P:65    SP:FB       BaseAddr:0000    IndirAddr:0000    Relative
CC30   00   90   2C    BCC    A:96    X:69    Y:01    P:65    SP:FB       BaseAddr:0000    IndirAddr:0000    Relative
CC32   00   50   2A    BVC    A:96    X:69    Y:01    P:65    SP:FB       BaseAddr:0000    IndirAddr:0000    Relative
CC34   00   18   B8    CLC    A:96    X:69    Y:01    P:64    SP:FB       BaseAddr:0000    IndirAddr:0000    Implied
CC35   00   B8   A0    CLV    A:96    X:69    Y:01    P:24    SP:FB       BaseAddr:0000    IndirAddr:0000    Implied
CC36   00   A0   00    LDY    A:96    X:69    Y:00    P:26    SP:FB       BaseAddr:0000    IndirAddr:0000    Immediate
CC38   00   88   F0    DEY    A:96    X:69    Y:FF    P:A4    SP:FB       BaseAddr:0000    IndirAddr:0000    Implied
CC39   00   F0   23    BEQ    A:96    X:69    Y:FF    P:A4    SP:FB       BaseAddr:0000    IndirAddr:0000    Relative
CC3B   00   10   21    BPL    A:96    X:69    Y:FF    P:A4    SP:FB       BaseAddr:0000    IndirAddr:0000    Relative
CC3D   00   B0   1F    BCS    A:96    X:69    Y:FF    P:A4    SP:FB       BaseAddr:0000    IndirAddr:0000    Relative
CC3F   00   70   1D    BVS    A:96    X:69    Y:FF    P:A4    SP:FB       BaseAddr:0000    IndirAddr:0000    Relative
CC41   00   C0   FF    CPY    A:96    X:69    Y:FF    P:A7    SP:FB       BaseAddr:0000    IndirAddr:0000    Immediate
CC43   00   D0   19    BNE    A:96    X:69    Y:FF    P:A7    SP:FB       BaseAddr:0000    IndirAddr:0000    Relative
CC45   00   18   88    CLC    A:96    X:69    Y:FF    P:A6    SP:FB       BaseAddr:0000    IndirAddr:0000    Implied
CC46   00   88   F0    DEY    A:96    X:69    Y:FE    P:A4    SP:FB       BaseAddr:0000    IndirAddr:0000    Implied
CC47   00   F0   15    BEQ    A:96    X:69    Y:FE    P:A4    SP:FB       BaseAddr:0000    IndirAddr:0000    Relative
CC49   00   10   13    BPL    A:96    X:69    Y:FE    P:A4    SP:FB       BaseAddr:0000    IndirAddr:0000    Relative
CC4B   00   B0   11    BCS    A:96    X:69    Y:FE    P:A4    SP:FB       BaseAddr:0000    IndirAddr:0000    Relative
CC4D   00   70   0F    BVS    A:96    X:69    Y:FE    P:A4    SP:FB       BaseAddr:0000    IndirAddr:0000    Relative
CC4F   00   C0   FE    CPY    A:96    X:69    Y:FE    P:A7    SP:FB       BaseAddr:0000    IndirAddr:0000    Immediate
CC51   00   D0   0B    BNE    A:96    X:69    Y:FE    P:A7    SP:FB       BaseAddr:0000    IndirAddr:0000    Relative
CC53   00   C9   96    CMP    A:96    X:69    Y:FE    P:A7    SP:FB       BaseAddr:0000    IndirAddr:0000    Immediate
CC55   00   D0   07    BNE    A:96    X:69    Y:FE    P:A7    SP:FB       BaseAddr:0000    IndirAddr:0000    Relative
CC57   00   E0   69    CPX    A:96    X:69    Y:FE    P:A7    SP:FB       BaseAddr:0000    IndirAddr:0000    Immediate
CC59   00   D0   03    BNE    A:96    X:69    Y:FE    P:A7    SP:FB       BaseAddr:0000    IndirAddr:0000    Relative
CC5B   4C   62   CC    JMP    A:96    X:69    Y:FE    P:A7    SP:FB       BaseAddr:CC62    IndirAddr:0000    Absolute
CC62   00   EA   38    NOP    A:96    X:69    Y:FE    P:A7    SP:FB       BaseAddr:0000    IndirAddr:0000    Implied
CC63   00   38   A0    SEC    A:96    X:69    Y:FE    P:A7    SP:FB       BaseAddr:0000    IndirAddr:0000    Implied
CC64   00   A0   69    LDY    A:96    X:69    Y:69    P:25    SP:FB       BaseAddr:0000    IndirAddr:0000    Immediate
CC66   00   A9   96    LDA    A:96    X:69    Y:69    P:A5    SP:FB       BaseAddr:0000    IndirAddr:0000    Immediate
CC68   24   01   FF    BIT    A:96    X:69    Y:69    P:E5    SP:FB       BaseAddr:0001    IndirAddr:0000    Zero_page
CC6A   00   A2   FF    LDX    A:96    X:FF    Y:69    P:E5    SP:FB       BaseAddr:0000    IndirAddr:0000    Immediate
CC6C   00   E8   D0    INX    A:96    X:00    Y:69    P:67    SP:FB       BaseAddr:0000    IndirAddr:0000    Implied
CC6D   00   D0   3D    BNE    A:96    X:00    Y:69    P:67    SP:FB       BaseAddr:0000    IndirAddr:0000    Relative
CC6F   00   30   3B    BMI    A:96    X:00    Y:69    P:67    SP:FB       BaseAddr:0000    IndirAddr:0000    Relative
CC71   00   90   39    BCC    A:96    X:00    Y:69    P:67    SP:FB       BaseAddr:0000    IndirAddr:0000    Relative
CC73   00   50   37    BVC    A:96    X:00    Y:69    P:67    SP:FB       BaseAddr:0000    IndirAddr:0000    Relative
CC75   00   E0   00    CPX    A:96    X:00    Y:69    P:67    SP:FB       BaseAddr:0000    IndirAddr:0000    Immediate
CC77   00   D0   33    BNE    A:96    X:00    Y:69    P:67    SP:FB       BaseAddr:0000    IndirAddr:0000    Relative
CC79   00   E8   F0    INX    A:96    X:01    Y:69    P:65    SP:FB       BaseAddr:0000    IndirAddr:0000    Implied
CC7A   00   F0   30    BEQ    A:96    X:01    Y:69    P:65    SP:FB       BaseAddr:0000    IndirAddr:0000    Relative
CC7C   00   30   2E    BMI    A:96    X:01    Y:69    P:65    SP:FB       BaseAddr:0000    IndirAddr:0000    Relative
CC7E   00   90   2C    BCC    A:96    X:01    Y:69    P:65    SP:FB       BaseAddr:0000    IndirAddr:0000    Relative
CC80   00   50   2A    BVC    A:96    X:01    Y:69    P:65    SP:FB       BaseAddr:0000    IndirAddr:0000    Relative
CC82   00   18   B8    CLC    A:96    X:01    Y:69    P:64    SP:FB       BaseAddr:0000    IndirAddr:0000    Implied
CC83   00   B8   A2    CLV    A:96    X:01    Y:69    P:24    SP:FB       BaseAddr:0000    IndirAddr:0000    Implied
CC84   00   A2   00    LDX    A:96    X:00    Y:69    P:26    SP:FB       BaseAddr:0000    IndirAddr:0000    Immediate
CC86   00   CA   F0    DEX    A:96    X:FF    Y:69    P:A4    SP:FB       BaseAddr:0000    IndirAddr:0000    Implied
CC87   00   F0   23    BEQ    A:96    X:FF    Y:69    P:A4    SP:FB       BaseAddr:0000    IndirAddr:0000    Relative
CC89   00   10   21    BPL    A:96    X:FF    Y:69    P:A4    SP:FB       BaseAddr:0000    IndirAddr:0000    Relative
CC8B   00   B0   1F    BCS    A:96    X:FF    Y:69    P:A4    SP:FB       BaseAddr:0000    IndirAddr:0000    Relative
CC8D   00   70   1D    BVS    A:96    X:FF    Y:69    P:A4    SP:FB       BaseAddr:0000    IndirAddr:0000    Relative
CC8F   00   E0   FF    CPX    A:96    X:FF    Y:69    P:A7    SP:FB       BaseAddr:0000    IndirAddr:0000    Immediate
CC91   00   D0   19    BNE    A:96    X:FF    Y:69    P:A7    SP:FB       BaseAddr:0000    IndirAddr:0000    Relative
CC93   00   18   CA    CLC    A:96    X:FF    Y:69    P:A6    SP:FB       BaseAddr:0000    IndirAddr:0000    Implied
CC94   00   CA   F0    DEX    A:96    X:FE    Y:69    P:A4    SP:FB       BaseAddr:0000    IndirAddr:0000    Implied
CC95   00   F0   15    BEQ    A:96    X:FE    Y:69    P:A4    SP:FB       BaseAddr:0000    IndirAddr:0000    Relative
CC97   00   10   13    BPL    A:96    X:FE    Y:69    P:A4    SP:FB       BaseAddr:0000    IndirAddr:0000    Relative
CC99   00   B0   11    BCS    A:96    X:FE    Y:69    P:A4    SP:FB       BaseAddr:0000    IndirAddr:0000    Relative
CC9B   00   70   0F    BVS    A:96    X:FE    Y:69    P:A4    SP:FB       BaseAddr:0000    IndirAddr:0000    Relative
CC9D   00   E0   FE    CPX    A:96    X:FE    Y:69    P:A7    SP:FB       BaseAddr:0000    IndirAddr:0000    Immediate
CC9F   00   D0   0B    BNE    A:96    X:FE    Y:69    P:A7    SP:FB       BaseAddr:0000    IndirAddr:0000    Relative
CCA1   00   C9   96    CMP    A:96    X:FE    Y:69    P:A7    SP:FB       BaseAddr:0000    IndirAddr:0000    Immediate
CCA3   00   D0   07    BNE    A:96    X:FE    Y:69    P:A7    SP:FB       BaseAddr:0000    IndirAddr:0000    Relative
CCA5   00   C0   69    CPY    A:96    X:FE    Y:69    P:A7    SP:FB       BaseAddr:0000    IndirAddr:0000    Immediate
CCA7   00   D0   03    BNE    A:96    X:FE    Y:69    P:A7    SP:FB       BaseAddr:0000    IndirAddr:0000    Relative
CCA9   4C   B0   CC    JMP    A:96    X:FE    Y:69    P:A7    SP:FB       BaseAddr:CCB0    IndirAddr:0000    Absolute
CCB0   00   EA   A9    NOP    A:96    X:FE    Y:69    P:A7    SP:FB       BaseAddr:0000    IndirAddr:0000    Implied
CCB1   00   A9   85    LDA    A:85    X:FE    Y:69    P:A5    SP:FB       BaseAddr:0000    IndirAddr:0000    Immediate
CCB3   00   A2   34    LDX    A:85    X:34    Y:69    P:25    SP:FB       BaseAddr:0000    IndirAddr:0000    Immediate
CCB5   00   A0   99    LDY    A:85    X:34    Y:99    P:A5    SP:FB       BaseAddr:0000    IndirAddr:0000    Immediate
CCB7   00   18   24    CLC    A:85    X:34    Y:99    P:A4    SP:FB       BaseAddr:0000    IndirAddr:0000    Implied
CCB8   24   01   FF    BIT    A:85    X:34    Y:99    P:E4    SP:FB       BaseAddr:0001    IndirAddr:0000    Zero_page
CCBA   00   A8   F0    TAY    A:85    X:34    Y:85    P:E4    SP:FB       BaseAddr:0000    IndirAddr:0000    Implied
CCBB   00   F0   2E    BEQ    A:85    X:34    Y:85    P:E4    SP:FB       BaseAddr:0000    IndirAddr:0000    Relative
CCBD   00   B0   2C    BCS    A:85    X:34    Y:85    P:E4    SP:FB       BaseAddr:0000    IndirAddr:0000    Relative
CCBF   00   50   2A    BVC    A:85    X:34    Y:85    P:E4    SP:FB       BaseAddr:0000    IndirAddr:0000    Relative
CCC1   00   10   28    BPL    A:85    X:34    Y:85    P:E4    SP:FB       BaseAddr:0000    IndirAddr:0000    Relative
CCC3   00   C9   85    CMP    A:85    X:34    Y:85    P:E7    SP:FB       BaseAddr:0000    IndirAddr:0000    Immediate
CCC5   00   D0   24    BNE    A:85    X:34    Y:85    P:E7    SP:FB       BaseAddr:0000    IndirAddr:0000    Relative
CCC7   00   E0   34    CPX    A:85    X:34    Y:85    P:E7    SP:FB       BaseAddr:0000    IndirAddr:0000    Immediate
CCC9   00   D0   20    BNE    A:85    X:34    Y:85    P:E7    SP:FB       BaseAddr:0000    IndirAddr:0000    Relative
CCCB   00   C0   85    CPY    A:85    X:34    Y:85    P:E7    SP:FB       BaseAddr:0000    IndirAddr:0000    Immediate
CCCD   00   D0   1C    BNE    A:85    X:34    Y:85    P:E7    SP:FB       BaseAddr:0000    IndirAddr:0000    Relative
CCCF   00   A9   00    LDA    A:00    X:34    Y:85    P:67    SP:FB       BaseAddr:0000    IndirAddr:0000    Immediate
CCD1   00   38   B8    SEC    A:00    X:34    Y:85    P:67    SP:FB       BaseAddr:0000    IndirAddr:0000    Implied
CCD2   00   B8   A8    CLV    A:00    X:34    Y:85    P:27    SP:FB       BaseAddr:0000    IndirAddr:0000    Implied
CCD3   00   A8   D0    TAY    A:00    X:34    Y:00    P:27    SP:FB       BaseAddr:0000    IndirAddr:0000    Implied
CCD4   00   D0   15    BNE    A:00    X:34    Y:00    P:27    SP:FB       BaseAddr:0000    IndirAddr:0000    Relative
CCD6   00   90   13    BCC    A:00    X:34    Y:00    P:27    SP:FB       BaseAddr:0000    IndirAddr:0000    Relative
CCD8   00   70   11    BVS    A:00    X:34    Y:00    P:27    SP:FB       BaseAddr:0000    IndirAddr:0000    Relative
CCDA   00   30   0F    BMI    A:00    X:34    Y:00    P:27    SP:FB       BaseAddr:0000    IndirAddr:0000    Relative
CCDC   00   C9   00    CMP    A:00    X:34    Y:00    P:27    SP:FB       BaseAddr:0000    IndirAddr:0000    Immediate
CCDE   00   D0   0B    BNE    A:00    X:34    Y:00    P:27    SP:FB       BaseAddr:0000    IndirAddr:0000    Relative
CCE0   00   E0   34    CPX    A:00    X:34    Y:00    P:27    SP:FB       BaseAddr:0000    IndirAddr:0000    Immediate
CCE2   00   D0   07    BNE    A:00    X:34    Y:00    P:27    SP:FB       BaseAddr:0000    IndirAddr:0000    Relative
CCE4   00   C0   00    CPY    A:00    X:34    Y:00    P:27    SP:FB       BaseAddr:0000    IndirAddr:0000    Immediate
CCE6   00   D0   03    BNE    A:00    X:34    Y:00    P:27    SP:FB       BaseAddr:0000    IndirAddr:0000    Relative
CCE8   4C   EF   CC    JMP    A:00    X:34    Y:00    P:27    SP:FB       BaseAddr:CCEF    IndirAddr:0000    Absolute
CCEF   00   EA   A9    NOP    A:00    X:34    Y:00    P:27    SP:FB       BaseAddr:0000    IndirAddr:0000    Implied
CCF0   00   A9   85    LDA    A:85    X:34    Y:00    P:A5    SP:FB       BaseAddr:0000    IndirAddr:0000    Immediate
CCF2   00   A2   34    LDX    A:85    X:34    Y:00    P:25    SP:FB       BaseAddr:0000    IndirAddr:0000    Immediate
CCF4   00   A0   99    LDY    A:85    X:34    Y:99    P:A5    SP:FB       BaseAddr:0000    IndirAddr:0000    Immediate
CCF6   00   18   24    CLC    A:85    X:34    Y:99    P:A4    SP:FB       BaseAddr:0000    IndirAddr:0000    Implied
CCF7   24   01   FF    BIT    A:85    X:34    Y:99    P:E4    SP:FB       BaseAddr:0001    IndirAddr:0000    Zero_page
CCF9   00   AA   F0    TAX    A:85    X:85    Y:99    P:E4    SP:FB       BaseAddr:0000    IndirAddr:0000    Implied
CCFA   00   F0   2E    BEQ    A:85    X:85    Y:99    P:E4    SP:FB       BaseAddr:0000    IndirAddr:0000    Relative
CCFC   00   B0   2C    BCS    A:85    X:85    Y:99    P:E4    SP:FB       BaseAddr:0000    IndirAddr:0000    Relative
CCFE   00   50   2A    BVC    A:85    X:85    Y:99    P:E4    SP:FB       BaseAddr:0000    IndirAddr:0000    Relative
CD00   00   10   28    BPL    A:85    X:85    Y:99    P:E4    SP:FB       BaseAddr:0000    IndirAddr:0000    Relative
CD02   00   C9   85    CMP    A:85    X:85    Y:99    P:E7    SP:FB       BaseAddr:0000    IndirAddr:0000    Immediate
CD04   00   D0   24    BNE    A:85    X:85    Y:99    P:E7    SP:FB       BaseAddr:0000    IndirAddr:0000    Relative
CD06   00   E0   85    CPX    A:85    X:85    Y:99    P:E7    SP:FB       BaseAddr:0000    IndirAddr:0000    Immediate
CD08   00   D0   20    BNE    A:85    X:85    Y:99    P:E7    SP:FB       BaseAddr:0000    IndirAddr:0000    Relative
CD0A   00   C0   99    CPY    A:85    X:85    Y:99    P:E7    SP:FB       BaseAddr:0000    IndirAddr:0000    Immediate
CD0C   00   D0   1C    BNE    A:85    X:85    Y:99    P:E7    SP:FB       BaseAddr:0000    IndirAddr:0000    Relative
CD0E   00   A9   00    LDA    A:00    X:85    Y:99    P:67    SP:FB       BaseAddr:0000    IndirAddr:0000    Immediate
CD10   00   38   B8    SEC    A:00    X:85    Y:99    P:67    SP:FB       BaseAddr:0000    IndirAddr:0000    Implied
CD11   00   B8   AA    CLV    A:00    X:85    Y:99    P:27    SP:FB       BaseAddr:0000    IndirAddr:0000    Implied
CD12   00   AA   D0    TAX    A:00    X:00    Y:99    P:27    SP:FB       BaseAddr:0000    IndirAddr:0000    Implied
CD13   00   D0   15    BNE    A:00    X:00    Y:99    P:27    SP:FB       BaseAddr:0000    IndirAddr:0000    Relative
CD15   00   90   13    BCC    A:00    X:00    Y:99    P:27    SP:FB       BaseAddr:0000    IndirAddr:0000    Relative
CD17   00   70   11    BVS    A:00    X:00    Y:99    P:27    SP:FB       BaseAddr:0000    IndirAddr:0000    Relative
CD19   00   30   0F    BMI    A:00    X:00    Y:99    P:27    SP:FB       BaseAddr:0000    IndirAddr:0000    Relative
CD1B   00   C9   00    CMP    A:00    X:00    Y:99    P:27    SP:FB       BaseAddr:0000    IndirAddr:0000    Immediate
CD1D   00   D0   0B    BNE    A:00    X:00    Y:99    P:27    SP:FB       BaseAddr:0000    IndirAddr:0000    Relative
CD1F   00   E0   00    CPX    A:00    X:00    Y:99    P:27    SP:FB       BaseAddr:0000    IndirAddr:0000    Immediate
CD21   00   D0   07    BNE    A:00    X:00    Y:99    P:27    SP:FB       BaseAddr:0000    IndirAddr:0000    Relative
CD23   00   C0   99    CPY    A:00    X:00    Y:99    P:27    SP:FB       BaseAddr:0000    IndirAddr:0000    Immediate
CD25   00   D0   03    BNE    A:00    X:00    Y:99    P:27    SP:FB       BaseAddr:0000    IndirAddr:0000    Relative
CD27   4C   2E   CD    JMP    A:00    X:00    Y:99    P:27    SP:FB       BaseAddr:CD2E    IndirAddr:0000    Absolute
CD2E   00   EA   A9    NOP    A:00    X:00    Y:99    P:27    SP:FB       BaseAddr:0000    IndirAddr:0000    Implied
CD2F   00   A9   85    LDA    A:85    X:00    Y:99    P:A5    SP:FB       BaseAddr:0000    IndirAddr:0000    Immediate
CD31   00   A2   34    LDX    A:85    X:34    Y:99    P:25    SP:FB       BaseAddr:0000    IndirAddr:0000    Immediate
CD33   00   A0   99    LDY    A:85    X:34    Y:99    P:A5    SP:FB       BaseAddr:0000    IndirAddr:0000    Immediate
CD35   00   18   24    CLC    A:85    X:34    Y:99    P:A4    SP:FB       BaseAddr:0000    IndirAddr:0000    Implied
CD36   24   01   FF    BIT    A:85    X:34    Y:99    P:E4    SP:FB       BaseAddr:0001    IndirAddr:0000    Zero_page
CD38   00   98   F0    TYA    A:99    X:34    Y:99    P:E4    SP:FB       BaseAddr:0000    IndirAddr:0000    Implied
CD39   00   F0   2E    BEQ    A:99    X:34    Y:99    P:E4    SP:FB       BaseAddr:0000    IndirAddr:0000    Relative
CD3B   00   B0   2C    BCS    A:99    X:34    Y:99    P:E4    SP:FB       BaseAddr:0000    IndirAddr:0000    Relative
CD3D   00   50   2A    BVC    A:99    X:34    Y:99    P:E4    SP:FB       BaseAddr:0000    IndirAddr:0000    Relative
CD3F   00   10   28    BPL    A:99    X:34    Y:99    P:E4    SP:FB       BaseAddr:0000    IndirAddr:0000    Relative
CD41   00   C9   99    CMP    A:99    X:34    Y:99    P:E7    SP:FB       BaseAddr:0000    IndirAddr:0000    Immediate
CD43   00   D0   24    BNE    A:99    X:34    Y:99    P:E7    SP:FB       BaseAddr:0000    IndirAddr:0000    Relative
CD45   00   E0   34    CPX    A:99    X:34    Y:99    P:E7    SP:FB       BaseAddr:0000    IndirAddr:0000    Immediate
CD47   00   D0   20    BNE    A:99    X:34    Y:99    P:E7    SP:FB       BaseAddr:0000    IndirAddr:0000    Relative
CD49   00   C0   99    CPY    A:99    X:34    Y:99    P:E7    SP:FB       BaseAddr:0000    IndirAddr:0000    Immediate
CD4B   00   D0   1C    BNE    A:99    X:34    Y:99    P:E7    SP:FB       BaseAddr:0000    IndirAddr:0000    Relative
CD4D   00   A0   00    LDY    A:99    X:34    Y:00    P:67    SP:FB       BaseAddr:0000    IndirAddr:0000    Immediate
CD4F   00   38   B8    SEC    A:99    X:34    Y:00    P:67    SP:FB       BaseAddr:0000    IndirAddr:0000    Implied
CD50   00   B8   98    CLV    A:99    X:34    Y:00    P:27    SP:FB       BaseAddr:0000    IndirAddr:0000    Implied
CD51   00   98   D0    TYA    A:00    X:34    Y:00    P:27    SP:FB       BaseAddr:0000    IndirAddr:0000    Implied
CD52   00   D0   15    BNE    A:00    X:34    Y:00    P:27    SP:FB       BaseAddr:0000    IndirAddr:0000    Relative
CD54   00   90   13    BCC    A:00    X:34    Y:00    P:27    SP:FB       BaseAddr:0000    IndirAddr:0000    Relative
CD56   00   70   11    BVS    A:00    X:34    Y:00    P:27    SP:FB       BaseAddr:0000    IndirAddr:0000    Relative
CD58   00   30   0F    BMI    A:00    X:34    Y:00    P:27    SP:FB       BaseAddr:0000    IndirAddr:0000    Relative
CD5A   00   C9   00    CMP    A:00    X:34    Y:00    P:27    SP:FB       BaseAddr:0000    IndirAddr:0000    Immediate
CD5C   00   D0   0B    BNE    A:00    X:34    Y:00    P:27    SP:FB       BaseAddr:0000    IndirAddr:0000    Relative
CD5E   00   E0   34    CPX    A:00    X:34    Y:00    P:27    SP:FB       BaseAddr:0000    IndirAddr:0000    Immediate
CD60   00   D0   07    BNE    A:00    X:34    Y:00    P:27    SP:FB       BaseAddr:0000    IndirAddr:0000    Relative
CD62   00   C0   00    CPY    A:00    X:34    Y:00    P:27    SP:FB       BaseAddr:0000    IndirAddr:0000    Immediate
CD64   00   D0   03    BNE    A:00    X:34    Y:00    P:27    SP:FB       BaseAddr:0000    IndirAddr:0000    Relative
CD66   4C   6D   CD    JMP    A:00    X:34    Y:00    P:27    SP:FB       BaseAddr:CD6D    IndirAddr:0000    Absolute
CD6D   00   EA   A9    NOP    A:00    X:34    Y:00    P:27    SP:FB       BaseAddr:0000    IndirAddr:0000    Implied
CD6E   00   A9   85    LDA    A:85    X:34    Y:00    P:A5    SP:FB       BaseAddr:0000    IndirAddr:0000    Immediate
CD70   00   A2   34    LDX    A:85    X:34    Y:00    P:25    SP:FB       BaseAddr:0000    IndirAddr:0000    Immediate
CD72   00   A0   99    LDY    A:85    X:34    Y:99    P:A5    SP:FB       BaseAddr:0000    IndirAddr:0000    Immediate
CD74   00   18   24    CLC    A:85    X:34    Y:99    P:A4    SP:FB       BaseAddr:0000    IndirAddr:0000    Implied
CD75   24   01   FF    BIT    A:85    X:34    Y:99    P:E4    SP:FB       BaseAddr:0001    IndirAddr:0000    Zero_page
CD77   00   8A   F0    TXA    A:34    X:34    Y:99    P:64    SP:FB       BaseAddr:0000    IndirAddr:0000    Implied
CD78   00   F0   2E    BEQ    A:34    X:34    Y:99    P:64    SP:FB       BaseAddr:0000    IndirAddr:0000    Relative
CD7A   00   B0   2C    BCS    A:34    X:34    Y:99    P:64    SP:FB       BaseAddr:0000    IndirAddr:0000    Relative
CD7C   00   50   2A    BVC    A:34    X:34    Y:99    P:64    SP:FB       BaseAddr:0000    IndirAddr:0000    Relative
CD7E   00   30   28    BMI    A:34    X:34    Y:99    P:64    SP:FB       BaseAddr:0000    IndirAddr:0000    Relative
CD80   00   C9   34    CMP    A:34    X:34    Y:99    P:67    SP:FB       BaseAddr:0000    IndirAddr:0000    Immediate
CD82   00   D0   24    BNE    A:34    X:34    Y:99    P:67    SP:FB       BaseAddr:0000    IndirAddr:0000    Relative
CD84   00   E0   34    CPX    A:34    X:34    Y:99    P:67    SP:FB       BaseAddr:0000    IndirAddr:0000    Immediate
CD86   00   D0   20    BNE    A:34    X:34    Y:99    P:67    SP:FB       BaseAddr:0000    IndirAddr:0000    Relative
CD88   00   C0   99    CPY    A:34    X:34    Y:99    P:67    SP:FB       BaseAddr:0000    IndirAddr:0000    Immediate
CD8A   00   D0   1C    BNE    A:34    X:34    Y:99    P:67    SP:FB       BaseAddr:0000    IndirAddr:0000    Relative
CD8C   00   A2   00    LDX    A:34    X:00    Y:99    P:67    SP:FB       BaseAddr:0000    IndirAddr:0000    Immediate
CD8E   00   38   B8    SEC    A:34    X:00    Y:99    P:67    SP:FB       BaseAddr:0000    IndirAddr:0000    Implied
CD8F   00   B8   8A    CLV    A:34    X:00    Y:99    P:27    SP:FB       BaseAddr:0000    IndirAddr:0000    Implied
CD90   00   8A   D0    TXA    A:00    X:00    Y:99    P:27    SP:FB       BaseAddr:0000    IndirAddr:0000    Implied
CD91   00   D0   15    BNE    A:00    X:00    Y:99    P:27    SP:FB       BaseAddr:0000    IndirAddr:0000    Relative
CD93   00   90   13    BCC    A:00    X:00    Y:99    P:27    SP:FB       BaseAddr:0000    IndirAddr:0000    Relative
CD95   00   70   11    BVS    A:00    X:00    Y:99    P:27    SP:FB       BaseAddr:0000    IndirAddr:0000    Relative
CD97   00   30   0F    BMI    A:00    X:00    Y:99    P:27    SP:FB       BaseAddr:0000    IndirAddr:0000    Relative
CD99   00   C9   00    CMP    A:00    X:00    Y:99    P:27    SP:FB       BaseAddr:0000    IndirAddr:0000    Immediate
CD9B   00   D0   0B    BNE    A:00    X:00    Y:99    P:27    SP:FB       BaseAddr:0000    IndirAddr:0000    Relative
CD9D   00   E0   00    CPX    A:00    X:00    Y:99    P:27    SP:FB       BaseAddr:0000    IndirAddr:0000    Immediate
CD9F   00   D0   07    BNE    A:00    X:00    Y:99    P:27    SP:FB       BaseAddr:0000    IndirAddr:0000    Relative
CDA1   00   C0   99    CPY    A:00    X:00    Y:99    P:27    SP:FB       BaseAddr:0000    IndirAddr:0000    Immediate
CDA3   00   D0   03    BNE    A:00    X:00    Y:99    P:27    SP:FB       BaseAddr:0000    IndirAddr:0000    Relative
CDA5   4C   AC   CD    JMP    A:00    X:00    Y:99    P:27    SP:FB       BaseAddr:CDAC    IndirAddr:0000    Absolute
CDAC   00   EA   BA    NOP    A:00    X:00    Y:99    P:27    SP:FB       BaseAddr:0000    IndirAddr:0000    Implied
CDAD   00   BA   8E    TSX    A:00    X:FB    Y:99    P:A5    SP:FB       BaseAddr:0000    IndirAddr:0000    Implied
CDAE   8E   FF   07    STX    A:00    X:FB    Y:99    P:A5    SP:FB       BaseAddr:07FF    IndirAddr:0000    Absolute
CDB1   00   A0   33    LDY    A:00    X:FB    Y:33    P:25    SP:FB       BaseAddr:0000    IndirAddr:0000    Immediate
CDB3   00   A2   69    LDX    A:00    X:69    Y:33    P:25    SP:FB       BaseAddr:0000    IndirAddr:0000    Immediate
CDB5   00   A9   84    LDA    A:84    X:69    Y:33    P:A5    SP:FB       BaseAddr:0000    IndirAddr:0000    Immediate
CDB7   00   18   24    CLC    A:84    X:69    Y:33    P:A4    SP:FB       BaseAddr:0000    IndirAddr:0000    Implied
CDB8   24   01   FF    BIT    A:84    X:69    Y:33    P:E4    SP:FB       BaseAddr:0001    IndirAddr:0000    Zero_page
CDBA   00   9A   F0    TXS    A:84    X:69    Y:33    P:E4    SP:69       BaseAddr:0000    IndirAddr:0000    Implied
CDBB   00   F0   32    BEQ    A:84    X:69    Y:33    P:E4    SP:69       BaseAddr:0000    IndirAddr:0000    Relative
CDBD   00   10   30    BPL    A:84    X:69    Y:33    P:E4    SP:69       BaseAddr:0000    IndirAddr:0000    Relative
CDBF   00   B0   2E    BCS    A:84    X:69    Y:33    P:E4    SP:69       BaseAddr:0000    IndirAddr:0000    Relative
CDC1   00   50   2C    BVC    A:84    X:69    Y:33    P:E4    SP:69       BaseAddr:0000    IndirAddr:0000    Relative
CDC3   00   C9   84    CMP    A:84    X:69    Y:33    P:E7    SP:69       BaseAddr:0000    IndirAddr:0000    Immediate
CDC5   00   D0   28    BNE    A:84    X:69    Y:33    P:E7    SP:69       BaseAddr:0000    IndirAddr:0000    Relative
CDC7   00   E0   69    CPX    A:84    X:69    Y:33    P:E7    SP:69       BaseAddr:0000    IndirAddr:0000    Immediate
CDC9   00   D0   24    BNE    A:84    X:69    Y:33    P:E7    SP:69       BaseAddr:0000    IndirAddr:0000    Relative
CDCB   00   C0   33    CPY    A:84    X:69    Y:33    P:E7    SP:69       BaseAddr:0000    IndirAddr:0000    Immediate
CDCD   00   D0   20    BNE    A:84    X:69    Y:33    P:E7    SP:69       BaseAddr:0000    IndirAddr:0000    Relative
CDCF   00   A0   01    LDY    A:84    X:69    Y:01    P:65    SP:69       BaseAddr:0000    IndirAddr:0000    Immediate
CDD1   00   A9   04    LDA    A:04    X:69    Y:01    P:65    SP:69       BaseAddr:0000    IndirAddr:0000    Immediate
CDD3   00   38   B8    SEC    A:04    X:69    Y:01    P:65    SP:69       BaseAddr:0000    IndirAddr:0000    Implied
CDD4   00   B8   A2    CLV    A:04    X:69    Y:01    P:25    SP:69       BaseAddr:0000    IndirAddr:0000    Implied
CDD5   00   A2   00    LDX    A:04    X:00    Y:01    P:27    SP:69       BaseAddr:0000    IndirAddr:0000    Immediate
CDD7   00   BA   F0    TSX    A:04    X:69    Y:01    P:25    SP:69       BaseAddr:0000    IndirAddr:0000    Implied
CDD8   00   F0   15    BEQ    A:04    X:69    Y:01    P:25    SP:69       BaseAddr:0000    IndirAddr:0000    Relative
CDDA   00   30   13    BMI    A:04    X:69    Y:01    P:25    SP:69       BaseAddr:0000    IndirAddr:0000    Relative
CDDC   00   90   11    BCC    A:04    X:69    Y:01    P:25    SP:69       BaseAddr:0000    IndirAddr:0000    Relative
CDDE   00   70   0F    BVS    A:04    X:69    Y:01    P:25    SP:69       BaseAddr:0000    IndirAddr:0000    Relative
CDE0   00   E0   69    CPX    A:04    X:69    Y:01    P:A7    SP:69       BaseAddr:0000    IndirAddr:0000    Immediate
CDE2   00   D0   0B    BNE    A:04    X:69    Y:01    P:A7    SP:69       BaseAddr:0000    IndirAddr:0000    Relative
CDE4   00   C9   04    CMP    A:04    X:69    Y:01    P:A7    SP:69       BaseAddr:0000    IndirAddr:0000    Immediate
CDE6   00   D0   07    BNE    A:04    X:69    Y:01    P:A7    SP:69       BaseAddr:0000    IndirAddr:0000    Relative
CDE8   00   C0   01    CPY    A:04    X:69    Y:01    P:A7    SP:69       BaseAddr:0000    IndirAddr:0000    Immediate
CDEA   00   D0   03    BNE    A:04    X:69    Y:01    P:A7    SP:69       BaseAddr:0000    IndirAddr:0000    Relative
CDEC   4C   F3   CD    JMP    A:04    X:69    Y:01    P:A7    SP:69       BaseAddr:CDF3    IndirAddr:0000    Absolute
CDF3   FF   07   FB    LDX    A:04    X:FB    Y:01    P:A5    SP:69       BaseAddr:07FF    IndirAddr:0000    Absolute
CDF6   00   9A   60    TXS    A:04    X:FB    Y:01    P:A5    SP:FB       BaseAddr:0000    IndirAddr:0000    Implied
CDF7   07   C6   CB    RTS    A:04    X:FB    Y:01    P:A5    SP:FD       BaseAddr:0000    IndirAddr:0000    Implied
C609   F8   C6   CD    JSR    A:04    X:FB    Y:01    P:A5    SP:FB       BaseAddr:CDF8    IndirAddr:0000    Absolute
CDF8   00   A9   FF    LDA    A:FF    X:FB    Y:01    P:A5    SP:FB       BaseAddr:0000    IndirAddr:0000    Immediate
CDFA   00   85   01    STA    A:FF    X:FB    Y:01    P:A5    SP:FB       BaseAddr:0001    IndirAddr:0000    Zero_page
CDFC   00   BA   8E    TSX    A:FF    X:FB    Y:01    P:A5    SP:FB       BaseAddr:0000    IndirAddr:0000    Implied
CDFD   8E   FF   07    STX    A:FF    X:FB    Y:01    P:A5    SP:FB       BaseAddr:07FF    IndirAddr:0000    Absolute
CE00   00   EA   A2    NOP    A:FF    X:FB    Y:01    P:A5    SP:FB       BaseAddr:0000    IndirAddr:0000    Implied
CE01   00   A2   80    LDX    A:FF    X:80    Y:01    P:A5    SP:FB       BaseAddr:0000    IndirAddr:0000    Immediate
CE03   00   9A   A9    TXS    A:FF    X:80    Y:01    P:A5    SP:80       BaseAddr:0000    IndirAddr:0000    Implied
CE04   00   A9   33    LDA    A:33    X:80    Y:01    P:25    SP:80       BaseAddr:0000    IndirAddr:0000    Immediate
CE06   00   48   A9    PHA    A:33    X:80    Y:01    P:25    SP:7F       BaseAddr:0000    IndirAddr:0000    Implied
CE07   00   A9   69    LDA    A:69    X:80    Y:01    P:25    SP:7F       BaseAddr:0000    IndirAddr:0000    Immediate
CE09   00   48   BA    PHA    A:69    X:80    Y:01    P:25    SP:7E       BaseAddr:0000    IndirAddr:0000    Implied
CE0A   00   BA   E0    TSX    A:69    X:7E    Y:01    P:25    SP:7E       BaseAddr:0000    IndirAddr:0000    Implied
CE0B   00   E0   7E    CPX    A:69    X:7E    Y:01    P:A7    SP:7E       BaseAddr:0000    IndirAddr:0000    Immediate
CE0D   00   D0   20    BNE    A:69    X:7E    Y:01    P:A7    SP:7E       BaseAddr:0000    IndirAddr:0000    Relative
CE0F   C9   00   69    PLA    A:69    X:7E    Y:01    P:25    SP:7F       BaseAddr:0000    IndirAddr:0000    Implied
CE10   00   C9   69    CMP    A:69    X:7E    Y:01    P:27    SP:7F       BaseAddr:0000    IndirAddr:0000    Immediate
CE12   00   D0   1B    BNE    A:69    X:7E    Y:01    P:27    SP:7F       BaseAddr:0000    IndirAddr:0000    Relative
CE14   C9   69   33    PLA    A:33    X:7E    Y:01    P:25    SP:80       BaseAddr:0000    IndirAddr:0000    Implied
CE15   00   C9   33    CMP    A:33    X:7E    Y:01    P:27    SP:80       BaseAddr:0000    IndirAddr:0000    Immediate
CE17   00   D0   16    BNE    A:33    X:7E    Y:01    P:27    SP:80       BaseAddr:0000    IndirAddr:0000    Relative
CE19   00   BA   E0    TSX    A:33    X:80    Y:01    P:A5    SP:80       BaseAddr:0000    IndirAddr:0000    Implied
CE1A   00   E0   80    CPX    A:33    X:80    Y:01    P:A7    SP:80       BaseAddr:0000    IndirAddr:0000    Immediate
CE1C   00   D0   11    BNE    A:33    X:80    Y:01    P:A7    SP:80       BaseAddr:0000    IndirAddr:0000    Relative
CE1E   80   01   00    LDA    A:00    X:80    Y:01    P:27    SP:80       BaseAddr:0180    IndirAddr:0000    Absolute
CE21   00   C9   33    CMP    A:00    X:80    Y:01    P:A7    SP:80       BaseAddr:0000    IndirAddr:0000    Immediate
CE23   00   D0   0A    BNE    A:00    X:80    Y:01    P:A7    SP:80       BaseAddr:0000    IndirAddr:0000    Relative
CE25   7F   01   00    LDA    A:00    X:80    Y:01    P:27    SP:80       BaseAddr:017F    IndirAddr:0000    Absolute
CE28   00   C9   69    CMP    A:00    X:80    Y:01    P:A7    SP:80       BaseAddr:0000    IndirAddr:0000    Immediate
CE2A   00   D0   03    BNE    A:00    X:80    Y:01    P:A7    SP:80       BaseAddr:0000    IndirAddr:0000    Relative
CE2C   4C   33   CE    JMP    A:00    X:80    Y:01    P:A7    SP:80       BaseAddr:CE33    IndirAddr:0000    Absolute
CE33   00   EA   A2    NOP    A:00    X:80    Y:01    P:A7    SP:80       BaseAddr:0000    IndirAddr:0000    Implied
CE34   00   A2   80    LDX    A:00    X:80    Y:01    P:A5    SP:80       BaseAddr:0000    IndirAddr:0000    Immediate
CE36   00   9A   20    TXS    A:00    X:80    Y:01    P:A5    SP:80       BaseAddr:0000    IndirAddr:0000    Implied
CE37   3D   33   CE    JSR    A:00    X:80    Y:01    P:A5    SP:7E       BaseAddr:CE3D    IndirAddr:0000    Absolute
CE3D   00   BA   E0    TSX    A:00    X:7E    Y:01    P:25    SP:7E       BaseAddr:0000    IndirAddr:0000    Implied
CE3E   00   E0   7E    CPX    A:00    X:7E    Y:01    P:A7    SP:7E       BaseAddr:0000    IndirAddr:0000    Immediate
CE40   00   D0   19    BNE    A:00    X:7E    Y:01    P:A7    SP:7E       BaseAddr:0000    IndirAddr:0000    Relative
CE42   68   00   38    PLA    A:38    X:7E    Y:01    P:25    SP:7F       BaseAddr:0000    IndirAddr:0000    Implied
CE43   BA   38   CE    PLA    A:CE    X:7E    Y:01    P:A5    SP:80       BaseAddr:0000    IndirAddr:0000    Implied
CE44   00   BA   E0    TSX    A:CE    X:80    Y:01    P:A5    SP:80       BaseAddr:0000    IndirAddr:0000    Implied
CE45   00   E0   80    CPX    A:CE    X:80    Y:01    P:A7    SP:80       BaseAddr:0000    IndirAddr:0000    Immediate
CE47   00   D0   12    BNE    A:CE    X:80    Y:01    P:A7    SP:80       BaseAddr:0000    IndirAddr:0000    Relative
CE49   00   A9   00    LDA    A:00    X:80    Y:01    P:27    SP:80       BaseAddr:0000    IndirAddr:0000    Immediate
CE4B   4E   CE   CE    JSR    A:00    X:80    Y:01    P:27    SP:7E       BaseAddr:CE4E    IndirAddr:0000    Absolute
CE4E   C9   00   4C    PLA    A:4C    X:80    Y:01    P:25    SP:7F       BaseAddr:0000    IndirAddr:0000    Implied
CE4F   00   C9   4D    CMP    A:4C    X:80    Y:01    P:A5    SP:7F       BaseAddr:0000    IndirAddr:0000    Immediate
CE51   00   D0   08    BNE    A:4C    X:80    Y:01    P:A5    SP:7F       BaseAddr:0000    IndirAddr:0000    Relative
CE5B   00   A2   47    LDX    A:4C    X:47    Y:01    P:25    SP:7F       BaseAddr:0000    IndirAddr:0000    Immediate
CE5D   00   86   00    STX    A:4C    X:47    Y:01    P:25    SP:7F       BaseAddr:0000    IndirAddr:0000    Zero_page
CE5F   00   EA   A9    NOP    A:4C    X:47    Y:01    P:25    SP:7F       BaseAddr:0000    IndirAddr:0000    Implied
CE60   00   A9   CE    LDA    A:CE    X:47    Y:01    P:A5    SP:7F       BaseAddr:0000    IndirAddr:0000    Immediate
CE62   00   48   A9    PHA    A:CE    X:47    Y:01    P:A5    SP:7E       BaseAddr:0000    IndirAddr:0000    Implied
CE63   00   A9   66    LDA    A:66    X:47    Y:01    P:25    SP:7E       BaseAddr:0000    IndirAddr:0000    Immediate
CE65   00   48   60    PHA    A:66    X:47    Y:01    P:25    SP:7D       BaseAddr:0000    IndirAddr:0000    Implied
CE66   66   CE   A2    RTS    A:66    X:47    Y:01    P:25    SP:7F       BaseAddr:0000    IndirAddr:0000    Implied
CE68   CE   00   00    RTS    A:66    X:47    Y:01    P:25    SP:81       BaseAddr:0000    IndirAddr:0000    Implied
00D0   00   F4   C5    BRK    A:66    X:47    Y:01    P:25    SP:7E       BaseAddr:0000    IndirAddr:0000    Implied
C5F4   35   D1   00    RTI    A:66    X:47    Y:01    P:25    SP:81       BaseAddr:0000    IndirAddr:0000    Implied
00D1   00   F4   C5    BRK    A:66    X:47    Y:01    P:25    SP:7E       BaseAddr:0000    IndirAddr:0000    Implied
C5F4   35   D2   00    RTI    A:66    X:47    Y:01    P:25    SP:81       BaseAddr:0000    IndirAddr:0000    Implied
00D2   00   F4   C5    BRK    A:66    X:47    Y:01    P:25    SP:7E       BaseAddr:0000    IndirAddr:0000    Implied
C5F4   35   D3   00    RTI    A:66    X:47    Y:01    P:25    SP:81       BaseAddr:0000    IndirAddr:0000    Implied
00D3   00   F4   C5    BRK    A:66    X:47    Y:01    P:25    SP:7E       BaseAddr:0000    IndirAddr:0000    Implied
C5F4   35   D4   00    RTI    A:66    X:47    Y:01    P:25    SP:81       BaseAddr:0000    IndirAddr:0000    Implied
00D4   00   F4   C5    BRK    A:66    X:47    Y:01    P:25    SP:7E       BaseAddr:0000    IndirAddr:0000    Implied
C5F4   35   D5   00    RTI    A:66    X:47    Y:01    P:25    SP:81       BaseAddr:0000    IndirAddr:0000    Implied
00D5   00   F4   C5    BRK    A:66    X:47    Y:01    P:25    SP:7E       BaseAddr:0000    IndirAddr:0000    Implied
C5F4   35   D6   00    RTI    A:66    X:47    Y:01    P:25    SP:81       BaseAddr:0000    IndirAddr:0000    Implied
00D6   00   F4   C5    BRK    A:66    X:47    Y:01    P:25    SP:7E       BaseAddr:0000    IndirAddr:0000    Implied
C5F4   35   D7   00    RTI    A:66    X:47    Y:01    P:25    SP:81       BaseAddr:0000    IndirAddr:0000    Implied
00D7   00   F4   C5    BRK    A:66    X:47    Y:01    P:25    SP:7E       BaseAddr:0000    IndirAddr:0000    Implied
C5F4   35   D8   00    RTI    A:66    X:47    Y:01    P:25    SP:81       BaseAddr:0000    IndirAddr:0000    Implied
00D8   00   F4   C5    BRK    A:66    X:47    Y:01    P:25    SP:7E       BaseAddr:0000    IndirAddr:0000    Implied
C5F4   35   D9   00    RTI    A:66    X:47    Y:01    P:25    SP:81       BaseAddr:0000    IndirAddr:0000    Implied
00D9   00   F4   C5    BRK    A:66    X:47    Y:01    P:25    SP:7E       BaseAddr:0000    IndirAddr:0000    Implied
C5F4   35   DA   00    RTI    A:66    X:47    Y:01    P:25    SP:81       BaseAddr:0000    IndirAddr:0000    Implied
00DA   00   F4   C5    BRK    A:66    X:47    Y:01    P:25    SP:7E       BaseAddr:0000    IndirAddr:0000    Implied
C5F4   35   DB   00    RTI    A:66    X:47    Y:01    P:25    SP:81       BaseAddr:0000    IndirAddr:0000    Implied
00DB   00   F4   C5    BRK    A:66    X:47    Y:01    P:25    SP:7E       BaseAddr:0000    IndirAddr:0000    Implied
C5F4   35   DC   00    RTI    A:66    X:47    Y:01    P:25    SP:81       BaseAddr:0000    IndirAddr:0000    Implied
00DC   00   F4   C5    BRK    A:66    X:47    Y:01    P:25    SP:7E       BaseAddr:0000    IndirAddr:0000    Implied
C5F4   35   DD   00    RTI    A:66    X:47    Y:01    P:25    SP:81       BaseAddr:0000    IndirAddr:0000    Implied
00DD   00   F4   C5    BRK    A:66    X:47    Y:01    P:25    SP:7E       BaseAddr:0000    IndirAddr:0000    Implied
C5F4   35   DE   00    RTI    A:66    X:47    Y:01    P:25    SP:81       BaseAddr:0000    IndirAddr:0000    Implied
00DE   00   F4   C5    BRK    A:66    X:47    Y:01    P:25    SP:7E       BaseAddr:0000    IndirAddr:0000    Implied
C5F4   35   DF   00    RTI    A:66    X:47    Y:01    P:25    SP:81       BaseAddr:0000    IndirAddr:0000    Implied
00DF   00   F4   C5    BRK    A:66    X:47    Y:01    P:25    SP:7E       BaseAddr:0000    IndirAddr:0000    Implied
C5F4   35   E0   00    RTI    A:66    X:47    Y:01    P:25    SP:81       BaseAddr:0000    IndirAddr:0000    Implied
00E0   00   F4   C5    BRK    A:66    X:47    Y:01    P:25    SP:7E       BaseAddr:0000    IndirAddr:0000    Implied
C5F4   35   E1   00    RTI    A:66    X:47    Y:01    P:25    SP:81       BaseAddr:0000    IndirAddr:0000    Implied
00E1   00   F4   C5    BRK    A:66    X:47    Y:01    P:25    SP:7E       BaseAddr:0000    IndirAddr:0000    Implied
C5F4   35   E2   00    RTI    A:66    X:47    Y:01    P:25    SP:81       BaseAddr:0000    IndirAddr:0000    Implied
00E2   00   F4   C5    BRK    A:66    X:47    Y:01    P:25    SP:7E       BaseAddr:0000    IndirAddr:0000    Implied
C5F4   35   E3   00    RTI    A:66    X:47    Y:01    P:25    SP:81       BaseAddr:0000    IndirAddr:0000    Implied
00E3   00   F4   C5    BRK    A:66    X:47    Y:01    P:25    SP:7E       BaseAddr:0000    IndirAddr:0000    Implied
C5F4   35   E4   00    RTI    A:66    X:47    Y:01    P:25    SP:81       BaseAddr:0000    IndirAddr:0000    Implied
00E4   00   F4   C5    BRK    A:66    X:47    Y:01    P:25    SP:7E       BaseAddr:0000    IndirAddr:0000    Implied
C5F4   35   E5   00    RTI    A:66    X:47    Y:01    P:25    SP:81       BaseAddr:0000    IndirAddr:0000    Implied
00E5   00   F4   C5    BRK    A:66    X:47    Y:01    P:25    SP:7E       BaseAddr:0000    IndirAddr:0000    Implied
C5F4   35   E6   00    RTI    A:66    X:47    Y:01    P:25    SP:81       BaseAddr:0000    IndirAddr:0000    Implied
00E6   00   F4   C5    BRK    A:66    X:47    Y:01    P:25    SP:7E       BaseAddr:0000    IndirAddr:0000    Implied
C5F4   35   E7   00    RTI    A:66    X:47    Y:01    P:25    SP:81       BaseAddr:0000    IndirAddr:0000    Implied
00E7   00   F4   C5    BRK    A:66    X:47    Y:01    P:25    SP:7E       BaseAddr:0000    IndirAddr:0000    Implied
C5F4   35   E8   00    RTI    A:66    X:47    Y:01    P:25    SP:81       BaseAddr:0000    IndirAddr:0000    Implied
00E8   00   F4   C5    BRK    A:66    X:47    Y:01    P:25    SP:7E       BaseAddr:0000    IndirAddr:0000    Implied
C5F4   35   E9   00    RTI    A:66    X:47    Y:01    P:25    SP:81       BaseAddr:0000    IndirAddr:0000    Implied
00E9   00   F4   C5    BRK    A:66    X:47    Y:01    P:25    SP:7E       BaseAddr:0000    IndirAddr:0000    Implied
C5F4   35   EA   00    RTI    A:66    X:47    Y:01    P:25    SP:81       BaseAddr:0000    IndirAddr:0000    Implied
00EA   00   F4   C5    BRK    A:66    X:47    Y:01    P:25    SP:7E       BaseAddr:0000    IndirAddr:0000    Implied
C5F4   35   EB   00    RTI    A:66    X:47    Y:01    P:25    SP:81       BaseAddr:0000    IndirAddr:0000    Implied
00EB   00   F4   C5    BRK    A:66    X:47    Y:01    P:25    SP:7E       BaseAddr:0000    IndirAddr:0000    Implied
C5F4   35   EC   00    RTI    A:66    X:47    Y:01    P:25    SP:81       BaseAddr:0000    IndirAddr:0000    Implied
00EC   00   F4   C5    BRK    A:66    X:47    Y:01    P:25    SP:7E       BaseAddr:0000    IndirAddr:0000    Implied
C5F4   35   ED   00    RTI    A:66    X:47    Y:01    P:25    SP:81       BaseAddr:0000    IndirAddr:0000    Implied
00ED   00   F4   C5    BRK    A:66    X:47    Y:01    P:25    SP:7E       BaseAddr:0000    IndirAddr:0000    Implied
C5F4   35   EE   00    RTI    A:66    X:47    Y:01    P:25    SP:81       BaseAddr:0000    IndirAddr:0000    Implied
00EE   00   F4   C5    BRK    A:66    X:47    Y:01    P:25    SP:7E       BaseAddr:0000    IndirAddr:0000    Implied
C5F4   35   EF   00    RTI    A:66    X:47    Y:01    P:25    SP:81       BaseAddr:0000    IndirAddr:0000    Implied
00EF   00   F4   C5    BRK    A:66    X:47    Y:01    P:25    SP:7E       BaseAddr:0000    IndirAddr:0000    Implied
C5F4   35   F0   00    RTI    A:66    X:47    Y:01    P:25    SP:81       BaseAddr:0000    IndirAddr:0000    Implied
00F0   00   F4   C5    BRK    A:66    X:47    Y:01    P:25    SP:7E       BaseAddr:0000    IndirAddr:0000    Implied
C5F4   35   F1   00    RTI    A:66    X:47    Y:01    P:25    SP:81       BaseAddr:0000    IndirAddr:0000    Implied
00F1   00   F4   C5    BRK    A:66    X:47    Y:01    P:25    SP:7E       BaseAddr:0000    IndirAddr:0000    Implied
C5F4   35   F2   00    RTI    A:66    X:47    Y:01    P:25    SP:81       BaseAddr:0000    IndirAddr:0000    Implied
00F2   00   F4   C5    BRK    A:66    X:47    Y:01    P:25    SP:7E       BaseAddr:0000    IndirAddr:0000    Implied
C5F4   35   F3   00    RTI    A:66    X:47    Y:01    P:25    SP:81       BaseAddr:0000    IndirAddr:0000    Implied
00F3   00   F4   C5    BRK    A:66    X:47    Y:01    P:25    SP:7E       BaseAddr:0000    IndirAddr:0000    Implied
C5F4   35   F4   00    RTI    A:66    X:47    Y:01    P:25    SP:81       BaseAddr:0000    IndirAddr:0000    Implied
00F4   00   F4   C5    BRK    A:66    X:47    Y:01    P:25    SP:7E       BaseAddr:0000    IndirAddr:0000    Implied
C5F4   35   F5   00    RTI    A:66    X:47    Y:01    P:25    SP:81       BaseAddr:0000    IndirAddr:0000    Implied
00F5   00   F4   C5    BRK    A:66    X:47    Y:01    P:25    SP:7E       BaseAddr:0000    IndirAddr:0000    Implied
C5F4   35   F6   00    RTI    A:66    X:47    Y:01    P:25    SP:81       BaseAddr:0000    IndirAddr:0000    Implied
00F6   00   F4   C5    BRK    A:66    X:47    Y:01    P:25    SP:7E       BaseAddr:0000    IndirAddr:0000    Implied
C5F4   35   F7   00    RTI    A:66    X:47    Y:01    P:25    SP:81       BaseAddr:0000    IndirAddr:0000    Implied
00F7   00   F4   C5    BRK    A:66    X:47    Y:01    P:25    SP:7E       BaseAddr:0000    IndirAddr:0000    Implied
C5F4   35   F8   00    RTI    A:66    X:47    Y:01    P:25    SP:81       BaseAddr:0000    IndirAddr:0000    Implied
00F8   00   F4   C5    BRK    A:66    X:47    Y:01    P:25    SP:7E       BaseAddr:0000    IndirAddr:0000    Implied
C5F4   35   F9   00    RTI    A:66    X:47    Y:01    P:25    SP:81       BaseAddr:0000    IndirAddr:0000    Implied
00F9   DB   F4   C5    BRK    A:66    X:47    Y:01    P:25    SP:7E       BaseAddr:0000    IndirAddr:0000    Implied
C5F4   35   FA   00    RTI    A:66    X:47    Y:01    P:25    SP:81       BaseAddr:0000    IndirAddr:0000    Implied
00FA   00   00   00    RTI    A:66    X:47    Y:01    P:20    SP:84       BaseAddr:0000    IndirAddr:0000    Implied
0000   00   00   00    RTI    A:66    X:47    Y:01    P:20    SP:87       BaseAddr:0000    IndirAddr:0000    Implied
0000   00   00   00    RTI    A:66    X:47    Y:01    P:20    SP:8A       BaseAddr:0000    IndirAddr:0000    Implied
0000   00   00   00    RTI    A:66    X:47    Y:01    P:20    SP:8D       BaseAddr:0000    IndirAddr:0000    Implied
0000   00   00   00    RTI    A:66    X:47    Y:01    P:20    SP:90       BaseAddr:0000    IndirAddr:0000    Implied
0000   00   00   00    RTI    A:66    X:47    Y:01    P:20    SP:93       BaseAddr:0000    IndirAddr:0000    Implied
0000   00   00   00    RTI    A:66    X:47    Y:01    P:20    SP:96       BaseAddr:0000    IndirAddr:0000    Implied
0000   00   00   00    RTI    A:66    X:47    Y:01    P:20    SP:99       BaseAddr:0000    IndirAddr:0000    Implied
0000   00   00   00    RTI    A:66    X:47    Y:01    P:20    SP:9C       BaseAddr:0000    IndirAddr:0000    Implied
0000   00   00   00    RTI    A:66    X:47    Y:01    P:20    SP:9F       BaseAddr:0000    IndirAddr:0000    Implied
0000   00   00   00    RTI    A:66    X:47    Y:01    P:20    SP:A2       BaseAddr:0000    IndirAddr:0000    Implied
0000   00   00   00    RTI    A:66    X:47    Y:01    P:20    SP:A5       BaseAddr:0000    IndirAddr:0000    Implied
0000   00   00   00    RTI    A:66    X:47    Y:01    P:20    SP:A8       BaseAddr:0000    IndirAddr:0000    Implied
0000   00   00   00    RTI    A:66    X:47    Y:01    P:20    SP:AB       BaseAddr:0000    IndirAddr:0000    Implied
0000   00   00   00    RTI    A:66    X:47    Y:01    P:20    SP:AE       BaseAddr:0000    IndirAddr:0000    Implied
0000   00   00   00    RTI    A:66    X:47    Y:01    P:20    SP:B1       BaseAddr:0000    IndirAddr:0000    Implied
0000   00   00   00    RTI    A:66    X:47    Y:01    P:20    SP:B4       BaseAddr:0000    IndirAddr:0000    Implied
0000   00   00   00    RTI    A:66    X:47    Y:01    P:20    SP:B7       BaseAddr:0000    IndirAddr:0000    Implied
0000   00   00   00    RTI    A:66    X:47    Y:01    P:20    SP:BA       BaseAddr:0000    IndirAddr:0000    Implied
0000   00   00   00    RTI    A:66    X:47    Y:01    P:20    SP:BD       BaseAddr:0000    IndirAddr:0000    Implied
0000   00   00   00    RTI    A:66    X:47    Y:01    P:20    SP:C0       BaseAddr:0000    IndirAddr:0000    Implied
0000   00   00   00    RTI    A:66    X:47    Y:01    P:20    SP:C3       BaseAddr:0000    IndirAddr:0000    Implied
0000   00   00   00    RTI    A:66    X:47    Y:01    P:20    SP:C6       BaseAddr:0000    IndirAddr:0000    Implied
0000   00   00   00    RTI    A:66    X:47    Y:01    P:20    SP:C9       BaseAddr:0000    IndirAddr:0000    Implied
0000   00   00   00    RTI    A:66    X:47    Y:01    P:20    SP:CC       BaseAddr:0000    IndirAddr:0000    Implied
0000   00   00   00    RTI    A:66    X:47    Y:01    P:20    SP:CF       BaseAddr:0000    IndirAddr:0000    Implied
0000   00   00   00    RTI    A:66    X:47    Y:01    P:20    SP:D2       BaseAddr:0000    IndirAddr:0000    Implied
0000   00   00   00    RTI    A:66    X:47    Y:01    P:20    SP:D5       BaseAddr:0000    IndirAddr:0000    Implied
0000   00   00   00    RTI    A:66    X:47    Y:01    P:20    SP:D8       BaseAddr:0000    IndirAddr:0000    Implied
0000   00   00   00    RTI    A:66    X:47    Y:01    P:20    SP:DB       BaseAddr:0000    IndirAddr:0000    Implied
0000   00   00   00    RTI    A:66    X:47    Y:01    P:20    SP:DE       BaseAddr:0000    IndirAddr:0000    Implied
0000   00   00   00    RTI    A:66    X:47    Y:01    P:20    SP:E1       BaseAddr:0000    IndirAddr:0000    Implied
0000   00   00   00    RTI    A:66    X:47    Y:01    P:20    SP:E4       BaseAddr:0000    IndirAddr:0000    Implied
0000   00   00   00    RTI    A:66    X:47    Y:01    P:20    SP:E7       BaseAddr:0000    IndirAddr:0000    Implied
0000   00   00   00    RTI    A:66    X:47    Y:01    P:20    SP:EA       BaseAddr:0000    IndirAddr:0000    Implied
0000   00   00   00    RTI    A:66    X:47    Y:01    P:20    SP:ED       BaseAddr:0000    IndirAddr:0000    Implied
0000   00   00   00    RTI    A:66    X:47    Y:01    P:20    SP:F0       BaseAddr:0000    IndirAddr:0000    Implied
0000   00   00   00    RTI    A:66    X:47    Y:01    P:20    SP:F3       BaseAddr:0000    IndirAddr:0000    Implied
0000   00   00   00    RTI    A:66    X:47    Y:01    P:20    SP:F6       BaseAddr:0000    IndirAddr:0000    Implied
0000   00   00   00    RTI    A:66    X:47    Y:01    P:20    SP:F9       BaseAddr:0000    IndirAddr:0000    Implied
0000   DB   CB   0A    RTI    A:66    X:47    Y:01    P:EB    SP:FC       BaseAddr:0000    IndirAddr:0000    Implied
0ACB   00   F4   C5    BRK    A:66    X:47    Y:01    P:EB    SP:F9       BaseAddr:0000    IndirAddr:0000    Implied
C5F4   FB   CC   0A    RTI    A:66    X:47    Y:01    P:EB    SP:FC       BaseAddr:0000    IndirAddr:0000    Implied
0ACC   00   F4   C5    BRK    A:66    X:47    Y:01    P:EB    SP:F9       BaseAddr:0000    IndirAddr:0000    Implied
C5F4   FB   CD   0A    RTI    A:66    X:47    Y:01    P:EB    SP:FC       BaseAddr:0000    IndirAddr:0000    Implied
0ACD   00   F4   C5    BRK    A:66    X:47    Y:01    P:EB    SP:F9       BaseAddr:0000    IndirAddr:0000    Implied
C5F4   FB   CE   0A    RTI    A:66    X:47    Y:01    P:EB    SP:FC       BaseAddr:0000    IndirAddr:0000    Implied
0ACE   00   F4   C5    BRK    A:66    X:47    Y:01    P:EB    SP:F9       BaseAddr:0000    IndirAddr:0000    Implied
C5F4   FB   CF   0A    RTI    A:66    X:47    Y:01    P:EB    SP:FC       BaseAddr:0000    IndirAddr:0000    Implied
0ACF   00   F4   C5    BRK    A:66    X:47    Y:01    P:EB    SP:F9       BaseAddr:0000    IndirAddr:0000    Implied
C5F4   FB   D0   0A    RTI    A:66    X:47    Y:01    P:EB    SP:FC       BaseAddr:0000    IndirAddr:0000    Implied
0AD0   00   F4   C5    BRK    A:66    X:47    Y:01    P:EB    SP:F9       BaseAddr:0000    IndirAddr:0000    Implied
C5F4   FB   D1   0A    RTI    A:66    X:47    Y:01    P:EB    SP:FC       BaseAddr:0000    IndirAddr:0000    Implied
0AD1   00   F4   C5    BRK    A:66    X:47    Y:01    P:EB    SP:F9       BaseAddr:0000    IndirAddr:0000    Implied
C5F4   FB   D2   0A    RTI    A:66    X:47    Y:01    P:EB    SP:FC       BaseAddr:0000    IndirAddr:0000    Implied
0AD2   00   F4   C5    BRK    A:66    X:47    Y:01    P:EB    SP:F9       BaseAddr:0000    IndirAddr:0000    Implied
C5F4   FB   D3   0A    RTI    A:66    X:47    Y:01    P:EB    SP:FC       BaseAddr:0000    IndirAddr:0000    Implied
0AD3   00   F4   C5    BRK    A:66    X:47    Y:01    P:EB    SP:F9       BaseAddr:0000    IndirAddr:0000    Implied
C5F4   FB   D4   0A    RTI    A:66    X:47    Y:01    P:EB    SP:FC       BaseAddr:0000    IndirAddr:0000    Implied
0AD4   00   F4   C5    BRK    A:66    X:47    Y:01    P:EB    SP:F9       BaseAddr:0000    IndirAddr:0000    Implied
C5F4   FB   D5   0A    RTI    A:66    X:47    Y:01    P:EB    SP:FC       BaseAddr:0000    IndirAddr:0000    Implied
0AD5   00   F4   C5    BRK    A:66    X:47    Y:01    P:EB    SP:F9       BaseAddr:0000    IndirAddr:0000    Implied
C5F4   FB   D6   0A    RTI    A:66    X:47    Y:01    P:EB    SP:FC       BaseAddr:0000    IndirAddr:0000    Implied
0AD6   00   F4   C5    BRK    A:66    X:47    Y:01    P:EB    SP:F9       BaseAddr:0000    IndirAddr:0000    Implied
C5F4   FB   D7   0A    RTI    A:66    X:47    Y:01    P:EB    SP:FC       BaseAddr:0000    IndirAddr:0000    Implied
0AD7   00   F4   C5    BRK    A:66    X:47    Y:01    P:EB    SP:F9       BaseAddr:0000    IndirAddr:0000    Implied
C5F4   FB   D8   0A    RTI    A:66    X:47    Y:01    P:EB    SP:FC       BaseAddr:0000    IndirAddr:0000    Implied
0AD8   00   F4   C5    BRK    A:66    X:47    Y:01    P:EB    SP:F9       BaseAddr:0000    IndirAddr:0000    Implied
C5F4   FB   D9   0A    RTI    A:66    X:47    Y:01    P:EB    SP:FC       BaseAddr:0000    IndirAddr:0000    Implied
0AD9   00   F4   C5    BRK    A:66    X:47    Y:01    P:EB    SP:F9       BaseAddr:0000    IndirAddr:0000    Implied
C5F4   FB   DA   0A    RTI    A:66    X:47    Y:01    P:EB    SP:FC       BaseAddr:0000    IndirAddr:0000    Implied
0ADA   00   F4   C5    BRK    A:66    X:47    Y:01    P:EB    SP:F9       BaseAddr:0000    IndirAddr:0000    Implied
C5F4   FB   DB   0A    RTI    A:66    X:47    Y:01    P:EB    SP:FC       BaseAddr:0000    IndirAddr:0000    Implied
0ADB   00   F4   C5    BRK    A:66    X:47    Y:01    P:EB    SP:F9       BaseAddr:0000    IndirAddr:0000    Implied
C5F4   FB   DC   0A    RTI    A:66    X:47    Y:01    P:EB    SP:FC       BaseAddr:0000    IndirAddr:0000    Implied
0ADC   00   F4   C5    BRK    A:66    X:47    Y:01    P:EB    SP:F9       BaseAddr:0000    IndirAddr:0000    Implied
C5F4   FB   DD   0A    RTI    A:66    X:47    Y:01    P:EB    SP:FC       BaseAddr:0000    IndirAddr:0000    Implied
0ADD   00   F4   C5    BRK    A:66    X:47    Y:01    P:EB    SP:F9       BaseAddr:0000    IndirAddr:0000    Implied
C5F4   FB   DE   0A    RTI    A:66    X:47    Y:01    P:EB    SP:FC       BaseAddr:0000    IndirAddr:0000    Implied
0ADE   00   F4   C5    BRK    A:66    X:47    Y:01    P:EB    SP:F9       BaseAddr:0000    IndirAddr:0000    Implied
C5F4   FB   DF   0A    RTI    A:66    X:47    Y:01    P:EB    SP:FC       BaseAddr:0000    IndirAddr:0000    Implied
0ADF   00   F4   C5    BRK    A:66    X:47    Y:01    P:EB    SP:F9       BaseAddr:0000    IndirAddr:0000    Implied
C5F4   FB   E0   0A    RTI    A:66    X:47    Y:01    P:EB    SP:FC       BaseAddr:0000    IndirAddr:0000    Implied
0AE0   00   F4   C5    BRK    A:66    X:47    Y:01    P:EB    SP:F9       BaseAddr:0000    IndirAddr:0000    Implied
C5F4   FB   E1   0A    RTI    A:66    X:47    Y:01    P:EB    SP:FC       BaseAddr:0000    IndirAddr:0000    Implied
0AE1   00   F4   C5    BRK    A:66    X:47    Y:01    P:EB    SP:F9       BaseAddr:0000    IndirAddr:0000    Implied
C5F4   FB   E2   0A    RTI    A:66    X:47    Y:01    P:EB    SP:FC       BaseAddr:0000    IndirAddr:0000    Implied
0AE2   00   F4   C5    BRK    A:66    X:47    Y:01    P:EB    SP:F9       BaseAddr:0000    IndirAddr:0000    Implied
C5F4   FB   E3   0A    RTI    A:66    X:47    Y:01    P:EB    SP:FC       BaseAddr:0000    IndirAddr:0000    Implied
0AE3   00   F4   C5    BRK    A:66    X:47    Y:01    P:EB    SP:F9       BaseAddr:0000    IndirAddr:0000    Implied
C5F4   FB   E4   0A    RTI    A:66    X:47    Y:01    P:EB    SP:FC       BaseAddr:0000    IndirAddr:0000    Implied
0AE4   00   F4   C5    BRK    A:66    X:47    Y:01    P:EB    SP:F9       BaseAddr:0000    IndirAddr:0000    Implied
C5F4   FB   E5   0A    RTI    A:66    X:47    Y:01    P:EB    SP:FC       BaseAddr:0000    IndirAddr:0000    Implied
0AE5   00   F4   C5    BRK    A:66    X:47    Y:01    P:EB    SP:F9       BaseAddr:0000    IndirAddr:0000    Implied
C5F4   FB   E6   0A    RTI    A:66    X:47    Y:01    P:EB    SP:FC       BaseAddr:0000    IndirAddr:0000    Implied
0AE6   00   F4   C5    BRK    A:66    X:47    Y:01    P:EB    SP:F9       BaseAddr:0000    IndirAddr:0000    Implied
C5F4   FB   E7   0A    RTI    A:66    X:47    Y:01    P:EB    SP:FC       BaseAddr:0000    IndirAddr:0000    Implied
0AE7   00   F4   C5    BRK    A:66    X:47    Y:01    P:EB    SP:F9       BaseAddr:0000    IndirAddr:0000    Implied
C5F4   FB   E8   0A    RTI    A:66    X:47    Y:01    P:EB    SP:FC       BaseAddr:0000    IndirAddr:0000    Implied
0AE8   00   F4   C5    BRK    A:66    X:47    Y:01    P:EB    SP:F9       BaseAddr:0000    IndirAddr:0000    Implied
C5F4   FB   E9   0A    RTI    A:66    X:47    Y:01    P:EB    SP:FC       BaseAddr:0000    IndirAddr:0000    Implied
0AE9   00   F4   C5    BRK    A:66    X:47    Y:01    P:EB    SP:F9       BaseAddr:0000    IndirAddr:0000    Implied
C5F4   FB   EA   0A    RTI    A:66    X:47    Y:01    P:EB    SP:FC       BaseAddr:0000    IndirAddr:0000    Implied
0AEA   00   F4   C5    BRK    A:66    X:47    Y:01    P:EB    SP:F9       BaseAddr:0000    IndirAddr:0000    Implied
C5F4   FB   EB   0A    RTI    A:66    X:47    Y:01    P:EB    SP:FC       BaseAddr:0000    IndirAddr:0000    Implied
0AEB   00   F4   C5    BRK    A:66    X:47    Y:01    P:EB    SP:F9       BaseAddr:0000    IndirAddr:0000    Implied
C5F4   FB   EC   0A    RTI    A:66    X:47    Y:01    P:EB    SP:FC       BaseAddr:0000    IndirAddr:0000    Implied
0AEC   00   F4   C5    BRK    A:66    X:47    Y:01    P:EB    SP:F9       BaseAddr:0000    IndirAddr:0000    Implied
C5F4   FB   ED   0A    RTI    A:66    X:47    Y:01    P:EB    SP:FC       BaseAddr:0000    IndirAddr:0000    Implied
0AED   00   F4   C5    BRK    A:66    X:47    Y:01    P:EB    SP:F9       BaseAddr:0000    IndirAddr:0000    Implied
C5F4   FB   EE   0A    RTI    A:66    X:47    Y:01    P:EB    SP:FC       BaseAddr:0000    IndirAddr:0000    Implied
0AEE   00   F4   C5    BRK    A:66    X:47    Y:01    P:EB    SP:F9       BaseAddr:0000    IndirAddr:0000    Implied
C5F4   FB   EF   0A    RTI    A:66    X:47    Y:01    P:EB    SP:FC       BaseAddr:0000    IndirAddr:0000    Implied
0AEF   00   F4   C5    BRK    A:66    X:47    Y:01    P:EB    SP:F9       BaseAddr:0000    IndirAddr:0000    Implied
C5F4   FB   F0   0A    RTI    A:66    X:47    Y:01    P:EB    SP:FC       BaseAddr:0000    IndirAddr:0000    Implied
0AF0   00   F4   C5    BRK    A:66    X:47    Y:01    P:EB    SP:F9       BaseAddr:0000    IndirAddr:0000    Implied
C5F4   FB   F1   0A    RTI    A:66    X:47    Y:01    P:EB    SP:FC       BaseAddr:0000    IndirAddr:0000    Implied
0AF1   00   F4   C5    BRK    A:66    X:47    Y:01    P:EB    SP:F9       BaseAddr:0000    IndirAddr:0000    Implied
C5F4   FB   F2   0A    RTI    A:66    X:47    Y:01    P:EB    SP:FC       BaseAddr:0000    IndirAddr:0000    Implied
0AF2   00   F4   C5    BRK    A:66    X:47    Y:01    P:EB    SP:F9       BaseAddr:0000    IndirAddr:0000    Implied
C5F4   FB   F3   0A    RTI    A:66    X:47    Y:01    P:EB    SP:FC       BaseAddr:0000    IndirAddr:0000    Implied
0AF3   00   F4   C5    BRK    A:66    X:47    Y:01    P:EB    SP:F9       BaseAddr:0000    IndirAddr:0000    Implied
C5F4   FB   F4   0A    RTI    A:66    X:47    Y:01    P:EB    SP:FC       BaseAddr:0000    IndirAddr:0000    Implied
0AF4   00   F4   C5    BRK    A:66    X:47    Y:01    P:EB    SP:F9       BaseAddr:0000    IndirAddr:0000    Implied
C5F4   FB   F5   0A    RTI    A:66    X:47    Y:01    P:EB    SP:FC       BaseAddr:0000    IndirAddr:0000    Implied
0AF5   00   F4   C5    BRK    A:66    X:47    Y:01    P:EB    SP:F9       BaseAddr:0000    IndirAddr:0000    Implied
C5F4   FB   F6   0A    RTI    A:66    X:47    Y:01    P:EB    SP:FC       BaseAddr:0000    IndirAddr:0000    Implied
0AF6   00   F4   C5    BRK    A:66    X:47    Y:01    P:EB    SP:F9       BaseAddr:0000    IndirAddr:0000    Implied
C5F4   FB   F7   0A    RTI    A:66    X:47    Y:01    P:EB    SP:FC       BaseAddr:0000    IndirAddr:0000    Implied
0AF7   00   F4   C5    BRK    A:66    X:47    Y:01    P:EB    SP:F9       BaseAddr:0000    IndirAddr:0000    Implied
C5F4   FB   F8   0A    RTI    A:66    X:47    Y:01    P:EB    SP:FC       BaseAddr:0000    IndirAddr:0000    Implied
0AF8   00   F4   C5    BRK    A:66    X:47    Y:01    P:EB    SP:F9       BaseAddr:0000    IndirAddr:0000    Implied
C5F4   FB   F9   0A    RTI    A:66    X:47    Y:01    P:EB    SP:FC       BaseAddr:0000    IndirAddr:0000    Implied
0AF9   00   F4   C5    BRK    A:66    X:47    Y:01    P:EB    SP:F9       BaseAddr:0000    IndirAddr:0000    Implied
C5F4   FB   FA   0A    RTI    A:66    X:47    Y:01    P:EB    SP:FC       BaseAddr:0000    IndirAddr:0000    Implied
0AFA   00   F4   C5    BRK    A:66    X:47    Y:01    P:EB    SP:F9       BaseAddr:0000    IndirAddr:0000    Implied
C5F4   FB   FB   0A    RTI    A:66    X:47    Y:01    P:EB    SP:FC       BaseAddr:0000    IndirAddr:0000    Implied
0AFB   00   F4   C5    BRK    A:66    X:47    Y:01    P:EB    SP:F9       BaseAddr:0000    IndirAddr:0000    Implied
C5F4   FB   FC   0A    RTI    A:66    X:47    Y:01    P:EB    SP:FC       BaseAddr:0000    IndirAddr:0000    Implied
0AFC   00   F4   C5    BRK    A:66    X:47    Y:01    P:EB    SP:F9       BaseAddr:0000    IndirAddr:0000    Implied
C5F4   FB   FD   0A    RTI    A:66    X:47    Y:01    P:EB    SP:FC       BaseAddr:0000    IndirAddr:0000    Implied
0AFD   00   F4   C5    BRK    A:66    X:47    Y:01    P:EB    SP:F9       BaseAddr:0000    IndirAddr:0000    Implied
C5F4   FB   FE   0A    RTI    A:66    X:47    Y:01    P:EB    SP:FC       BaseAddr:0000    IndirAddr:0000    Implied
0AFE   00   F4   C5    BRK    A:66    X:47    Y:01    P:EB    SP:F9       BaseAddr:0000    IndirAddr:0000    Implied
C5F4   FB   FF   0A    RTI    A:66    X:47    Y:01    P:EB    SP:FC       BaseAddr:0000    IndirAddr:0000    Implied
0AFF   00   F4   C5    BRK    A:66    X:47    Y:01    P:EB    SP:F9       BaseAddr:0000    IndirAddr:0000    Implied
C5F4   FB   00   0B    RTI    A:66    X:47    Y:01    P:EB    SP:FC       BaseAddr:0000    IndirAddr:0000    Implied
0B00   00   F4   C5    BRK    A:66    X:47    Y:01    P:EB    SP:F9       BaseAddr:0000    IndirAddr:0000    Implied
C5F4   FB   01   0B    RTI    A:66    X:47    Y:01    P:EB    SP:FC       BaseAddr:0000    IndirAddr:0000    Implied
0B01   00   F4   C5    BRK    A:66    X:47    Y:01    P:EB    SP:F9       BaseAddr:0000    IndirAddr:0000    Implied
C5F4   FB   02   0B    RTI    A:66    X:47    Y:01    P:EB    SP:FC       BaseAddr:0000    IndirAddr:0000    Implied
0B02   00   F4   C5    BRK    A:66    X:47    Y:01    P:EB    SP:F9       BaseAddr:0000    IndirAddr:0000    Implied
C5F4   FB   03   0B    RTI    A:66    X:47    Y:01    P:EB    SP:FC       BaseAddr:0000    IndirAddr:0000    Implied
0B03   00   F4   C5    BRK    A:66    X:47    Y:01    P:EB    SP:F9       BaseAddr:0000    IndirAddr:0000    Implied
C5F4   FB   04   0B    RTI    A:66    X:47    Y:01    P:EB    SP:FC       BaseAddr:0000    IndirAddr:0000    Implied
0B04   00   F4   C5    BRK    A:66    X:47    Y:01    P:EB    SP:F9       BaseAddr:0000    IndirAddr:0000    Implied
C5F4   FB   05   0B    RTI    A:66    X:47    Y:01    P:EB    SP:FC       BaseAddr:0000    IndirAddr:0000    Implied
0B05   00   F4   C5    BRK    A:66    X:47    Y:01    P:EB    SP:F9       BaseAddr:0000    IndirAddr:0000    Implied
C5F4   FB   06   0B    RTI    A:66    X:47    Y:01    P:EB    SP:FC       BaseAddr:0000    IndirAddr:0000    Implied
0B06   00   F4   C5    BRK    A:66    X:47    Y:01    P:EB    SP:F9       BaseAddr:0000    IndirAddr:0000    Implied
C5F4   FB   07   0B    RTI    A:66    X:47    Y:01    P:EB    SP:FC       BaseAddr:0000    IndirAddr:0000    Implied
0B07   00   F4   C5    BRK    A:66    X:47    Y:01    P:EB    SP:F9       BaseAddr:0000    IndirAddr:0000    Implied
C5F4   FB   08   0B    RTI    A:66    X:47    Y:01    P:EB    SP:FC       BaseAddr:0000    IndirAddr:0000    Implied
0B08   00   F4   C5    BRK    A:66    X:47    Y:01    P:EB    SP:F9       BaseAddr:0000    IndirAddr:0000    Implied
C5F4   FB   09   0B    RTI    A:66    X:47    Y:01    P:EB    SP:FC       BaseAddr:0000    IndirAddr:0000    Implied
0B09   00   F4   C5    BRK    A:66    X:47    Y:01    P:EB    SP:F9       BaseAddr:0000    IndirAddr:0000    Implied
C5F4   FB   0A   0B    RTI    A:66    X:47    Y:01    P:EB    SP:FC       BaseAddr:0000    IndirAddr:0000    Implied
0B0A   00   F4   C5    BRK    A:66    X:47    Y:01    P:EB    SP:F9       BaseAddr:0000    IndirAddr:0000    Implied
C5F4   FB   0B   0B    RTI    A:66    X:47    Y:01    P:EB    SP:FC       BaseAddr:0000    IndirAddr:0000    Implied
0B0B   00   F4   C5    BRK    A:66    X:47    Y:01    P:EB    SP:F9       BaseAddr:0000    IndirAddr:0000    Implied
C5F4   FB   0C   0B    RTI    A:66    X:47    Y:01    P:EB    SP:FC       BaseAddr:0000    IndirAddr:0000    Implied
0B0C   00   F4   C5    BRK    A:66    X:47    Y:01    P:EB    SP:F9       BaseAddr:0000    IndirAddr:0000    Implied
C5F4   FB   0D   0B    RTI    A:66    X:47    Y:01    P:EB    SP:FC       BaseAddr:0000    IndirAddr:0000    Implied
0B0D   00   F4   C5    BRK    A:66    X:47    Y:01    P:EB    SP:F9       BaseAddr:0000    IndirAddr:0000    Implied
C5F4   FB   0E   0B    RTI    A:66    X:47    Y:01    P:EB    SP:FC       BaseAddr:0000    IndirAddr:0000    Implied
0B0E   00   F4   C5    BRK    A:66    X:47    Y:01    P:EB    SP:F9       BaseAddr:0000    IndirAddr:0000    Implied
C5F4   FB   0F   0B    RTI    A:66    X:47    Y:01    P:EB    SP:FC       BaseAddr:0000    IndirAddr:0000    Implied
0B0F   00   F4   C5    BRK    A:66    X:47    Y:01    P:EB    SP:F9       BaseAddr:0000    IndirAddr:0000    Implied
C5F4   FB   10   0B    RTI    A:66    X:47    Y:01    P:EB    SP:FC       BaseAddr:0000    IndirAddr:0000    Implied
0B10   00   F4   C5    BRK    A:66    X:47    Y:01    P:EB    SP:F9       BaseAddr:0000    IndirAddr:0000    Implied
C5F4   FB   11   0B    RTI    A:66    X:47    Y:01    P:EB    SP:FC       BaseAddr:0000    IndirAddr:0000    Implied
0B11   00   F4   C5    BRK    A:66    X:47    Y:01    P:EB    SP:F9       BaseAddr:0000    IndirAddr:0000    Implied
C5F4   FB   12   0B    RTI    A:66    X:47    Y:01    P:EB    SP:FC       BaseAddr:0000    IndirAddr:0000    Implied
0B12   00   F4   C5    BRK    A:66    X:47    Y:01    P:EB    SP:F9       BaseAddr:0000    IndirAddr:0000    Implied
C5F4   FB   13   0B    RTI    A:66    X:47    Y:01    P:EB    SP:FC       BaseAddr:0000    IndirAddr:0000    Implied
0B13   00   F4   C5    BRK    A:66    X:47    Y:01    P:EB    SP:F9       BaseAddr:0000    IndirAddr:0000    Implied
C5F4   FB   14   0B    RTI    A:66    X:47    Y:01    P:EB    SP:FC       BaseAddr:0000    IndirAddr:0000    Implied
0B14   00   F4   C5    BRK    A:66    X:47    Y:01    P:EB    SP:F9       BaseAddr:0000    IndirAddr:0000    Implied
C5F4   FB   15   0B    RTI    A:66    X:47    Y:01    P:EB    SP:FC       BaseAddr:0000    IndirAddr:0000    Implied
0B15   00   F4   C5    BRK    A:66    X:47    Y:01    P:EB    SP:F9       BaseAddr:0000    IndirAddr:0000    Implied
C5F4   FB   16   0B    RTI    A:66    X:47    Y:01    P:EB    SP:FC       BaseAddr:0000    IndirAddr:0000    Implied
0B16   00   F4   C5    BRK    A:66    X:47    Y:01    P:EB    SP:F9       BaseAddr:0000    IndirAddr:0000    Implied
C5F4   FB   17   0B    RTI    A:66    X:47    Y:01    P:EB    SP:FC       BaseAddr:0000    IndirAddr:0000    Implied
0B17   00   F4   C5    BRK    A:66    X:47    Y:01    P:EB    SP:F9       BaseAddr:0000    IndirAddr:0000    Implied
C5F4   FB   18   0B    RTI    A:66    X:47    Y:01    P:EB    SP:FC       BaseAddr:0000    IndirAddr:0000    Implied
0B18   00   F4   C5    BRK    A:66    X:47    Y:01    P:EB    SP:F9       BaseAddr:0000    IndirAddr:0000    Implied
C5F4   FB   19   0B    RTI    A:66    X:47    Y:01    P:EB    SP:FC       BaseAddr:0000    IndirAddr:0000    Implied
0B19   00   F4   C5    BRK    A:66    X:47    Y:01    P:EB    SP:F9       BaseAddr:0000    IndirAddr:0000    Implied
C5F4   FB   1A   0B    RTI    A:66    X:47    Y:01    P:EB    SP:FC       BaseAddr:0000    IndirAddr:0000    Implied
0B1A   00   F4   C5    BRK    A:66    X:47    Y:01    P:EB    SP:F9       BaseAddr:0000    IndirAddr:0000    Implied
C5F4   FB   1B   0B    RTI    A:66    X:47    Y:01    P:EB    SP:FC       BaseAddr:0000    IndirAddr:0000    Implied
0B1B   00   F4   C5    BRK    A:66    X:47    Y:01    P:EB    SP:F9       BaseAddr:0000    IndirAddr:0000    Implied
C5F4   FB   1C   0B    RTI    A:66    X:47    Y:01    P:EB    SP:FC       BaseAddr:0000    IndirAddr:0000    Implied
0B1C   00   F4   C5    BRK    A:66    X:47    Y:01    P:EB    SP:F9       BaseAddr:0000    IndirAddr:0000    Implied
C5F4   FB   1D   0B    RTI    A:66    X:47    Y:01    P:EB    SP:FC       BaseAddr:0000    IndirAddr:0000    Implied
0B1D   00   F4   C5    BRK    A:66    X:47    Y:01    P:EB    SP:F9       BaseAddr:0000    IndirAddr:0000    Implied
C5F4   FB   1E   0B    RTI    A:66    X:47    Y:01    P:EB    SP:FC       BaseAddr:0000    IndirAddr:0000    Implied
0B1E   00   F4   C5    BRK    A:66    X:47    Y:01    P:EB    SP:F9       BaseAddr:0000    IndirAddr:0000    Implied
C5F4   FB   1F   0B    RTI    A:66    X:47    Y:01    P:EB    SP:FC       BaseAddr:0000    IndirAddr:0000    Implied
0B1F   00   F4   C5    BRK    A:66    X:47    Y:01    P:EB    SP:F9       BaseAddr:0000    IndirAddr:0000    Implied
C5F4   FB   20   0B    RTI    A:66    X:47    Y:01    P:EB    SP:FC       BaseAddr:0000    IndirAddr:0000    Implied
0B20   00   F4   C5    BRK    A:66    X:47    Y:01    P:EB    SP:F9       BaseAddr:0000    IndirAddr:0000    Implied
C5F4   FB   21   0B    RTI    A:66    X:47    Y:01    P:EB    SP:FC       BaseAddr:0000    IndirAddr:0000    Implied
0B21   00   F4   C5    BRK    A:66    X:47    Y:01    P:EB    SP:F9       BaseAddr:0000    IndirAddr:0000    Implied
C5F4   FB   22   0B    RTI    A:66    X:47    Y:01    P:EB    SP:FC       BaseAddr:0000    IndirAddr:0000    Implied
0B22   00   F4   C5    BRK    A:66    X:47    Y:01    P:EB    SP:F9       BaseAddr:0000    IndirAddr:0000    Implied
C5F4   FB   23   0B    RTI    A:66    X:47    Y:01    P:EB    SP:FC       BaseAddr:0000    IndirAddr:0000    Implied
0B23   00   F4   C5    BRK    A:66    X:47    Y:01    P:EB    SP:F9       BaseAddr:0000    IndirAddr:0000    Implied
C5F4   FB   24   0B    RTI    A:66    X:47    Y:01    P:EB    SP:FC       BaseAddr:0000    IndirAddr:0000    Implied
0B24   00   F4   C5    BRK    A:66    X:47    Y:01    P:EB    SP:F9       BaseAddr:0000    IndirAddr:0000    Implied
C5F4   FB   25   0B    RTI    A:66    X:47    Y:01    P:EB    SP:FC       BaseAddr:0000    IndirAddr:0000    Implied
0B25   00   F4   C5    BRK    A:66    X:47    Y:01    P:EB    SP:F9       BaseAddr:0000    IndirAddr:0000    Implied
C5F4   FB   26   0B    RTI    A:66    X:47    Y:01    P:EB    SP:FC       BaseAddr:0000    IndirAddr:0000    Implied
0B26   00   F4   C5    BRK    A:66    X:47    Y:01    P:EB    SP:F9       BaseAddr:0000    IndirAddr:0000    Implied
C5F4   FB   27   0B    RTI    A:66    X:47    Y:01    P:EB    SP:FC       BaseAddr:0000    IndirAddr:0000    Implied
0B27   00   F4   C5    BRK    A:66    X:47    Y:01    P:EB    SP:F9       BaseAddr:0000    IndirAddr:0000    Implied
C5F4   FB   28   0B    RTI    A:66    X:47    Y:01    P:EB    SP:FC       BaseAddr:0000    IndirAddr:0000    Implied
0B28   00   F4   C5    BRK    A:66    X:47    Y:01    P:EB    SP:F9       BaseAddr:0000    IndirAddr:0000    Implied
C5F4   FB   29   0B    RTI    A:66    X:47    Y:01    P:EB    SP:FC       BaseAddr:0000    IndirAddr:0000    Implied
0B29   00   F4   C5    BRK    A:66    X:47    Y:01    P:EB    SP:F9       BaseAddr:0000    IndirAddr:0000    Implied
C5F4   FB   2A   0B    RTI    A:66    X:47    Y:01    P:EB    SP:FC       BaseAddr:0000    IndirAddr:0000    Implied
0B2A   00   F4   C5    BRK    A:66    X:47    Y:01    P:EB    SP:F9       BaseAddr:0000    IndirAddr:0000    Implied
C5F4   FB   2B   0B    RTI    A:66    X:47    Y:01    P:EB    SP:FC       BaseAddr:0000    IndirAddr:0000    Implied
0B2B   00   F4   C5    BRK    A:66    X:47    Y:01    P:EB    SP:F9       BaseAddr:0000    IndirAddr:0000    Implied
C5F4   FB   2C   0B    RTI    A:66    X:47    Y:01    P:EB    SP:FC       BaseAddr:0000    IndirAddr:0000    Implied
0B2C   00   F4   C5    BRK    A:66    X:47    Y:01    P:EB    SP:F9       BaseAddr:0000    IndirAddr:0000    Implied
C5F4   FB   2D   0B    RTI    A:66    X:47    Y:01    P:EB    SP:FC       BaseAddr:0000    IndirAddr:0000    Implied
0B2D   00   F4   C5    BRK    A:66    X:47    Y:01    P:EB    SP:F9       BaseAddr:0000    IndirAddr:0000    Implied
C5F4   FB   2E   0B    RTI    A:66    X:47    Y:01    P:EB    SP:FC       BaseAddr:0000    IndirAddr:0000    Implied
0B2E   00   F4   C5    BRK    A:66    X:47    Y:01    P:EB    SP:F9       BaseAddr:0000    IndirAddr:0000    Implied
C5F4   FB   2F   0B    RTI    A:66    X:47    Y:01    P:EB    SP:FC       BaseAddr:0000    IndirAddr:0000    Implied
0B2F   00   F4   C5    BRK    A:66    X:47    Y:01    P:EB    SP:F9       BaseAddr:0000    IndirAddr:0000    Implied
C5F4   FB   30   0B    RTI    A:66    X:47    Y:01    P:EB    SP:FC       BaseAddr:0000    IndirAddr:0000    Implied
0B30   00   F4   C5    BRK    A:66    X:47    Y:01    P:EB    SP:F9       BaseAddr:0000    IndirAddr:0000    Implied
C5F4   FB   31   0B    RTI    A:66    X:47    Y:01    P:EB    SP:FC       BaseAddr:0000    IndirAddr:0000    Implied
0B31   00   F4   C5    BRK    A:66    X:47    Y:01    P:EB    SP:F9       BaseAddr:0000    IndirAddr:0000    Implied
C5F4   FB   32   0B    RTI    A:66    X:47    Y:01    P:EB    SP:FC       BaseAddr:0000    IndirAddr:0000    Implied
0B32   00   F4   C5    BRK    A:66    X:47    Y:01    P:EB    SP:F9       BaseAddr:0000    IndirAddr:0000    Implied
C5F4   FB   33   0B    RTI    A:66    X:47    Y:01    P:EB    SP:FC       BaseAddr:0000    IndirAddr:0000    Implied
0B33   00   F4   C5    BRK    A:66    X:47    Y:01    P:EB    SP:F9       BaseAddr:0000    IndirAddr:0000    Implied
C5F4   FB   34   0B    RTI    A:66    X:47    Y:01    P:EB    SP:FC       BaseAddr:0000    IndirAddr:0000    Implied
0B34   00   F4   C5    BRK    A:66    X:47    Y:01    P:EB    SP:F9       BaseAddr:0000    IndirAddr:0000    Implied
C5F4   FB   35   0B    RTI    A:66    X:47    Y:01    P:EB    SP:FC       BaseAddr:0000    IndirAddr:0000    Implied
0B35   00   F4   C5    BRK    A:66    X:47    Y:01    P:EB    SP:F9       BaseAddr:0000    IndirAddr:0000    Implied
C5F4   FB   36   0B    RTI    A:66    X:47    Y:01    P:EB    SP:FC       BaseAddr:0000    IndirAddr:0000    Implied
0B36   00   F4   C5    BRK    A:66    X:47    Y:01    P:EB    SP:F9       BaseAddr:0000    IndirAddr:0000    Implied
C5F4   FB   37   0B    RTI    A:66    X:47    Y:01    P:EB    SP:FC       BaseAddr:0000    IndirAddr:0000    Implied
0B37   00   F4   C5    BRK    A:66    X:47    Y:01    P:EB    SP:F9       BaseAddr:0000    IndirAddr:0000    Implied
C5F4   FB   38   0B    RTI    A:66    X:47    Y:01    P:EB    SP:FC       BaseAddr:0000    IndirAddr:0000    Implied
0B38   00   F4   C5    BRK    A:66    X:47    Y:01    P:EB    SP:F9       BaseAddr:0000    IndirAddr:0000    Implied
C5F4   FB   39   0B    RTI    A:66    X:47    Y:01    P:EB    SP:FC       BaseAddr:0000    IndirAddr:0000    Implied
0B39   00   F4   C5    BRK    A:66    X:47    Y:01    P:EB    SP:F9       BaseAddr:0000    IndirAddr:0000    Implied
C5F4   FB   3A   0B    RTI    A:66    X:47    Y:01    P:EB    SP:FC       BaseAddr:0000    IndirAddr:0000    Implied
0B3A   00   F4   C5    BRK    A:66    X:47    Y:01    P:EB    SP:F9       BaseAddr:0000    IndirAddr:0000    Implied
C5F4   FB   3B   0B    RTI    A:66    X:47    Y:01    P:EB    SP:FC       BaseAddr:0000    IndirAddr:0000    Implied
0B3B   00   F4   C5    BRK    A:66    X:47    Y:01    P:EB    SP:F9       BaseAddr:0000    IndirAddr:0000    Implied
C5F4   FB   3C   0B    RTI    A:66    X:47    Y:01    P:EB    SP:FC       BaseAddr:0000    IndirAddr:0000    Implied
0B3C   00   F4   C5    BRK    A:66    X:47    Y:01    P:EB    SP:F9       BaseAddr:0000    IndirAddr:0000    Implied
C5F4   FB   3D   0B    RTI    A:66    X:47    Y:01    P:EB    SP:FC       BaseAddr:0000    IndirAddr:0000    Implied
0B3D   00   F4   C5    BRK    A:66    X:47    Y:01    P:EB    SP:F9       BaseAddr:0000    IndirAddr:0000    Implied
C5F4   FB   3E   0B    RTI    A:66    X:47    Y:01    P:EB    SP:FC       BaseAddr:0000    IndirAddr:0000    Implied
0B3E   00   F4   C5    BRK    A:66    X:47    Y:01    P:EB    SP:F9       BaseAddr:0000    IndirAddr:0000    Implied
C5F4   FB   3F   0B    RTI    A:66    X:47    Y:01    P:EB    SP:FC       BaseAddr:0000    IndirAddr:0000    Implied
0B3F   00   F4   C5    BRK    A:66    X:47    Y:01    P:EB    SP:F9       BaseAddr:0000    IndirAddr:0000    Implied
C5F4   FB   40   0B    RTI    A:66    X:47    Y:01    P:EB    SP:FC       BaseAddr:0000    IndirAddr:0000    Implied
0B40   00   F4   C5    BRK    A:66    X:47    Y:01    P:EB    SP:F9       BaseAddr:0000    IndirAddr:0000    Implied
C5F4   FB   41   0B    RTI    A:66    X:47    Y:01    P:EB    SP:FC       BaseAddr:0000    IndirAddr:0000    Implied
0B41   00   F4   C5    BRK    A:66    X:47    Y:01    P:EB    SP:F9       BaseAddr:0000    IndirAddr:0000    Implied
C5F4   FB   42   0B    RTI    A:66    X:47    Y:01    P:EB    SP:FC       BaseAddr:0000    IndirAddr:0000    Implied
0B42   00   F4   C5    BRK    A:66    X:47    Y:01    P:EB    SP:F9       BaseAddr:0000    IndirAddr:0000    Implied
C5F4   FB   43   0B    RTI    A:66    X:47    Y:01    P:EB    SP:FC       BaseAddr:0000    IndirAddr:0000    Implied
0B43   00   F4   C5    BRK    A:66    X:47    Y:01    P:EB    SP:F9       BaseAddr:0000    IndirAddr:0000    Implied
C5F4   FB   44   0B    RTI    A:66    X:47    Y:01    P:EB    SP:FC       BaseAddr:0000    IndirAddr:0000    Implied
0B44   00   F4   C5    BRK    A:66    X:47    Y:01    P:EB    SP:F9       BaseAddr:0000    IndirAddr:0000    Implied
C5F4   FB   45   0B    RTI    A:66    X:47    Y:01    P:EB    SP:FC       BaseAddr:0000    IndirAddr:0000    Implied
0B45   00   F4   C5    BRK    A:66    X:47    Y:01    P:EB    SP:F9       BaseAddr:0000    IndirAddr:0000    Implied
C5F4   FB   46   0B    RTI    A:66    X:47    Y:01    P:EB    SP:FC       BaseAddr:0000    IndirAddr:0000    Implied
0B46   00   F4   C5    BRK    A:66    X:47    Y:01    P:EB    SP:F9       BaseAddr:0000    IndirAddr:0000    Implied
C5F4   FB   47   0B    RTI    A:66    X:47    Y:01    P:EB    SP:FC       BaseAddr:0000    IndirAddr:0000    Implied
0B47   00   F4   C5    BRK    A:66    X:47    Y:01    P:EB    SP:F9       BaseAddr:0000    IndirAddr:0000    Implied
C5F4   FB   48   0B    RTI    A:66    X:47    Y:01    P:EB    SP:FC       BaseAddr:0000    IndirAddr:0000    Implied
0B48   00   F4   C5    BRK    A:66    X:47    Y:01    P:EB    SP:F9       BaseAddr:0000    IndirAddr:0000    Implied
C5F4   FB   49   0B    RTI    A:66    X:47    Y:01    P:EB    SP:FC       BaseAddr:0000    IndirAddr:0000    Implied
0B49   00   F4   C5    BRK    A:66    X:47    Y:01    P:EB    SP:F9       BaseAddr:0000    IndirAddr:0000    Implied
C5F4   FB   4A   0B    RTI    A:66    X:47    Y:01    P:EB    SP:FC       BaseAddr:0000    IndirAddr:0000    Implied
0B4A   00   F4   C5    BRK    A:66    X:47    Y:01    P:EB    SP:F9       BaseAddr:0000    IndirAddr:0000    Implied
C5F4   FB   4B   0B    RTI    A:66    X:47    Y:01    P:EB    SP:FC       BaseAddr:0000    IndirAddr:0000    Implied
0B4B   00   F4   C5    BRK    A:66    X:47    Y:01    P:EB    SP:F9       BaseAddr:0000    IndirAddr:0000    Implied
C5F4   FB   4C   0B    RTI    A:66    X:47    Y:01    P:EB    SP:FC       BaseAddr:0000    IndirAddr:0000    Implied
0B4C   00   F4   C5    BRK    A:66    X:47    Y:01    P:EB    SP:F9       BaseAddr:0000    IndirAddr:0000    Implied
C5F4   FB   4D   0B    RTI    A:66    X:47    Y:01    P:EB    SP:FC       BaseAddr:0000    IndirAddr:0000    Implied
0B4D   00   F4   C5    BRK    A:66    X:47    Y:01    P:EB    SP:F9       BaseAddr:0000    IndirAddr:0000    Implied
C5F4   FB   4E   0B    RTI    A:66    X:47    Y:01    P:EB    SP:FC       BaseAddr:0000    IndirAddr:0000    Implied
0B4E   00   F4   C5    BRK    A:66    X:47    Y:01    P:EB    SP:F9       BaseAddr:0000    IndirAddr:0000    Implied
C5F4   FB   4F   0B    RTI    A:66    X:47    Y:01    P:EB    SP:FC       BaseAddr:0000    IndirAddr:0000    Implied
0B4F   00   F4   C5    BRK    A:66    X:47    Y:01    P:EB    SP:F9       BaseAddr:0000    IndirAddr:0000    Implied
C5F4   FB   50   0B    RTI    A:66    X:47    Y:01    P:EB    SP:FC       BaseAddr:0000    IndirAddr:0000    Implied
0B50   00   F4   C5    BRK    A:66    X:47    Y:01    P:EB    SP:F9       BaseAddr:0000    IndirAddr:0000    Implied
C5F4   FB   51   0B    RTI    A:66    X:47    Y:01    P:EB    SP:FC       BaseAddr:0000    IndirAddr:0000    Implied
0B51   00   F4   C5    BRK    A:66    X:47    Y:01    P:EB    SP:F9       BaseAddr:0000    IndirAddr:0000    Implied
C5F4   FB   52   0B    RTI    A:66    X:47    Y:01    P:EB    SP:FC       BaseAddr:0000    IndirAddr:0000    Implied
0B52   00   F4   C5    BRK    A:66    X:47    Y:01    P:EB    SP:F9       BaseAddr:0000    IndirAddr:0000    Implied
C5F4   FB   53   0B    RTI    A:66    X:47    Y:01    P:EB    SP:FC       BaseAddr:0000    IndirAddr:0000    Implied
0B53   00   F4   C5    BRK    A:66    X:47    Y:01    P:EB    SP:F9       BaseAddr:0000    IndirAddr:0000    Implied
C5F4   FB   54   0B    RTI    A:66    X:47    Y:01    P:EB    SP:FC       BaseAddr:0000    IndirAddr:0000    Implied
0B54   00   F4   C5    BRK    A:66    X:47    Y:01    P:EB    SP:F9       BaseAddr:0000    IndirAddr:0000    Implied
C5F4   FB   55   0B    RTI    A:66    X:47    Y:01    P:EB    SP:FC       BaseAddr:0000    IndirAddr:0000    Implied
0B55   00   F4   C5    BRK    A:66    X:47    Y:01    P:EB    SP:F9       BaseAddr:0000    IndirAddr:0000    Implied
C5F4   FB   56   0B    RTI    A:66    X:47    Y:01    P:EB    SP:FC       BaseAddr:0000    IndirAddr:0000    Implied
0B56   00   F4   C5    BRK    A:66    X:47    Y:01    P:EB    SP:F9       BaseAddr:0000    IndirAddr:0000    Implied
C5F4   FB   57   0B    RTI    A:66    X:47    Y:01    P:EB    SP:FC       BaseAddr:0000    IndirAddr:0000    Implied
0B57   00   F4   C5    BRK    A:66    X:47    Y:01    P:EB    SP:F9       BaseAddr:0000    IndirAddr:0000    Implied
C5F4   FB   58   0B    RTI    A:66    X:47    Y:01    P:EB    SP:FC       BaseAddr:0000    IndirAddr:0000    Implied
0B58   00   F4   C5    BRK    A:66    X:47    Y:01    P:EB    SP:F9       BaseAddr:0000    IndirAddr:0000    Implied
C5F4   FB   59   0B    RTI    A:66    X:47    Y:01    P:EB    SP:FC       BaseAddr:0000    IndirAddr:0000    Implied
0B59   00   F4   C5    BRK    A:66    X:47    Y:01    P:EB    SP:F9       BaseAddr:0000    IndirAddr:0000    Implied
C5F4   FB   5A   0B    RTI    A:66    X:47    Y:01    P:EB    SP:FC       BaseAddr:0000    IndirAddr:0000    Implied
0B5A   00   F4   C5    BRK    A:66    X:47    Y:01    P:EB    SP:F9       BaseAddr:0000    IndirAddr:0000    Implied
C5F4   FB   5B   0B    RTI    A:66    X:47    Y:01    P:EB    SP:FC       BaseAddr:0000    IndirAddr:0000    Implied
0B5B   00   F4   C5    BRK    A:66    X:47    Y:01    P:EB    SP:F9       BaseAddr:0000    IndirAddr:0000    Implied
C5F4   FB   5C   0B    RTI    A:66    X:47    Y:01    P:EB    SP:FC       BaseAddr:0000    IndirAddr:0000    Implied
0B5C   00   F4   C5    BRK    A:66    X:47    Y:01    P:EB    SP:F9       BaseAddr:0000    IndirAddr:0000    Implied
C5F4   FB   5D   0B    RTI    A:66    X:47    Y:01    P:EB    SP:FC       BaseAddr:0000    IndirAddr:0000    Implied
0B5D   00   F4   C5    BRK    A:66    X:47    Y:01    P:EB    SP:F9       BaseAddr:0000    IndirAddr:0000    Implied
C5F4   FB   5E   0B    RTI    A:66    X:47    Y:01    P:EB    SP:FC       BaseAddr:0000    IndirAddr:0000    Implied
0B5E   00   F4   C5    BRK    A:66    X:47    Y:01    P:EB    SP:F9       BaseAddr:0000    IndirAddr:0000    Implied
C5F4   FB   5F   0B    RTI    A:66    X:47    Y:01    P:EB    SP:FC       BaseAddr:0000    IndirAddr:0000    Implied
0B5F   00   F4   C5    BRK    A:66    X:47    Y:01    P:EB    SP:F9       BaseAddr:0000    IndirAddr:0000    Implied
C5F4   FB   60   0B    RTI    A:66    X:47    Y:01    P:EB    SP:FC       BaseAddr:0000    IndirAddr:0000    Implied
0B60   00   F4   C5    BRK    A:66    X:47    Y:01    P:EB    SP:F9       BaseAddr:0000    IndirAddr:0000    Implied
C5F4   FB   61   0B    RTI    A:66    X:47    Y:01    P:EB    SP:FC       BaseAddr:0000    IndirAddr:0000    Implied
0B61   00   F4   C5    BRK    A:66    X:47    Y:01    P:EB    SP:F9       BaseAddr:0000    IndirAddr:0000    Implied
C5F4   FB   62   0B    RTI    A:66    X:47    Y:01    P:EB    SP:FC       BaseAddr:0000    IndirAddr:0000    Implied
0B62   00   F4   C5    BRK    A:66    X:47    Y:01    P:EB    SP:F9       BaseAddr:0000    IndirAddr:0000    Implied
C5F4   FB   63   0B    RTI    A:66    X:47    Y:01    P:EB    SP:FC       BaseAddr:0000    IndirAddr:0000    Implied
0B63   00   F4   C5    BRK    A:66    X:47    Y:01    P:EB    SP:F9       BaseAddr:0000    IndirAddr:0000    Implied
C5F4   FB   64   0B    RTI    A:66    X:47    Y:01    P:EB    SP:FC       BaseAddr:0000    IndirAddr:0000    Implied
0B64   00   F4   C5    BRK    A:66    X:47    Y:01    P:EB    SP:F9       BaseAddr:0000    IndirAddr:0000    Implied
C5F4   FB   65   0B    RTI    A:66    X:47    Y:01    P:EB    SP:FC       BaseAddr:0000    IndirAddr:0000    Implied
0B65   00   F4   C5    BRK    A:66    X:47    Y:01    P:EB    SP:F9       BaseAddr:0000    IndirAddr:0000    Implied
C5F4   FB   66   0B    RTI    A:66    X:47    Y:01    P:EB    SP:FC       BaseAddr:0000    IndirAddr:0000    Implied
0B66   00   F4   C5    BRK    A:66    X:47    Y:01    P:EB    SP:F9       BaseAddr:0000    IndirAddr:0000    Implied
C5F4   FB   67   0B    RTI    A:66    X:47    Y:01    P:EB    SP:FC       BaseAddr:0000    IndirAddr:0000    Implied
0B67   00   F4   C5    BRK    A:66    X:47    Y:01    P:EB    SP:F9       BaseAddr:0000    IndirAddr:0000    Implied
C5F4   FB   68   0B    RTI    A:66    X:47    Y:01    P:EB    SP:FC       BaseAddr:0000    IndirAddr:0000    Implied
0B68   00   F4   C5    BRK    A:66    X:47    Y:01    P:EB    SP:F9       BaseAddr:0000    IndirAddr:0000    Implied
C5F4   FB   69   0B    RTI    A:66    X:47    Y:01    P:EB    SP:FC       BaseAddr:0000    IndirAddr:0000    Implied
0B69   00   F4   C5    BRK    A:66    X:47    Y:01    P:EB    SP:F9       BaseAddr:0000    IndirAddr:0000    Implied
C5F4   FB   6A   0B    RTI    A:66    X:47    Y:01    P:EB    SP:FC       BaseAddr:0000    IndirAddr:0000    Implied
0B6A   00   F4   C5    BRK    A:66    X:47    Y:01    P:EB    SP:F9       BaseAddr:0000    IndirAddr:0000    Implied
C5F4   FB   6B   0B    RTI    A:66    X:47    Y:01    P:EB    SP:FC       BaseAddr:0000    IndirAddr:0000    Implied
0B6B   00   F4   C5    BRK    A:66    X:47    Y:01    P:EB    SP:F9       BaseAddr:0000    IndirAddr:0000    Implied
C5F4   FB   6C   0B    RTI    A:66    X:47    Y:01    P:EB    SP:FC       BaseAddr:0000    IndirAddr:0000    Implied
0B6C   00   F4   C5    BRK    A:66    X:47    Y:01    P:EB    SP:F9       BaseAddr:0000    IndirAddr:0000    Implied
C5F4   FB   6D   0B    RTI    A:66    X:47    Y:01    P:EB    SP:FC       BaseAddr:0000    IndirAddr:0000    Implied
0B6D   00   F4   C5    BRK    A:66    X:47    Y:01    P:EB    SP:F9       BaseAddr:0000    IndirAddr:0000    Implied
C5F4   FB   6E   0B    RTI    A:66    X:47    Y:01    P:EB    SP:FC       BaseAddr:0000    IndirAddr:0000    Implied
0B6E   00   F4   C5    BRK    A:66    X:47    Y:01    P:EB    SP:F9       BaseAddr:0000    IndirAddr:0000    Implied
C5F4   FB   6F   0B    RTI    A:66    X:47    Y:01    P:EB    SP:FC       BaseAddr:0000    IndirAddr:0000    Implied
0B6F   00   F4   C5    BRK    A:66    X:47    Y:01    P:EB    SP:F9       BaseAddr:0000    IndirAddr:0000    Implied
C5F4   FB   70   0B    RTI    A:66    X:47    Y:01    P:EB    SP:FC       BaseAddr:0000    IndirAddr:0000    Implied
0B70   00   F4   C5    BRK    A:66    X:47    Y:01    P:EB    SP:F9       BaseAddr:0000    IndirAddr:0000    Implied
C5F4   FB   71   0B    RTI    A:66    X:47    Y:01    P:EB    SP:FC       BaseAddr:0000    IndirAddr:0000    Implied
0B71   00   F4   C5    BRK    A:66    X:47    Y:01    P:EB    SP:F9       BaseAddr:0000    IndirAddr:0000    Implied
C5F4   FB   72   0B    RTI    A:66    X:47    Y:01    P:EB    SP:FC       BaseAddr:0000    IndirAddr:0000    Implied
0B72   00   F4   C5    BRK    A:66    X:47    Y:01    P:EB    SP:F9       BaseAddr:0000    IndirAddr:0000    Implied
C5F4   FB   73   0B    RTI    A:66    X:47    Y:01    P:EB    SP:FC       BaseAddr:0000    IndirAddr:0000    Implied
0B73   00   F4   C5    BRK    A:66    X:47    Y:01    P:EB    SP:F9       BaseAddr:0000    IndirAddr:0000    Implied
C5F4   FB   74   0B    RTI    A:66    X:47    Y:01    P:EB    SP:FC       BaseAddr:0000    IndirAddr:0000    Implied
0B74   00   F4   C5    BRK    A:66    X:47    Y:01    P:EB    SP:F9       BaseAddr:0000    IndirAddr:0000    Implied
C5F4   FB   75   0B    RTI    A:66    X:47    Y:01    P:EB    SP:FC       BaseAddr:0000    IndirAddr:0000    Implied
0B75   00   F4   C5    BRK    A:66    X:47    Y:01    P:EB    SP:F9       BaseAddr:0000    IndirAddr:0000    Implied
C5F4   FB   76   0B    RTI    A:66    X:47    Y:01    P:EB    SP:FC       BaseAddr:0000    IndirAddr:0000    Implied
0B76   00   F4   C5    BRK    A:66    X:47    Y:01    P:EB    SP:F9       BaseAddr:0000    IndirAddr:0000    Implied
C5F4   FB   77   0B    RTI    A:66    X:47    Y:01    P:EB    SP:FC       BaseAddr:0000    IndirAddr:0000    Implied
0B77   00   F4   C5    BRK    A:66    X:47    Y:01    P:EB    SP:F9       BaseAddr:0000    IndirAddr:0000    Implied
C5F4   FB   78   0B    RTI    A:66    X:47    Y:01    P:EB    SP:FC       BaseAddr:0000    IndirAddr:0000    Implied
0B78   00   F4   C5    BRK    A:66    X:47    Y:01    P:EB    SP:F9       BaseAddr:0000    IndirAddr:0000    Implied
C5F4   FB   79   0B    RTI    A:66    X:47    Y:01    P:EB    SP:FC       BaseAddr:0000    IndirAddr:0000    Implied
0B79   00   F4   C5    BRK    A:66    X:47    Y:01    P:EB    SP:F9       BaseAddr:0000    IndirAddr:0000    Implied
C5F4   FB   7A   0B    RTI    A:66    X:47    Y:01    P:EB    SP:FC       BaseAddr:0000    IndirAddr:0000    Implied
0B7A   00   F4   C5    BRK    A:66    X:47    Y:01    P:EB    SP:F9       BaseAddr:0000    IndirAddr:0000    Implied
C5F4   FB   7B   0B    RTI    A:66    X:47    Y:01    P:EB    SP:FC       BaseAddr:0000    IndirAddr:0000    Implied
0B7B   00   F4   C5    BRK    A:66    X:47    Y:01    P:EB    SP:F9       BaseAddr:0000    IndirAddr:0000    Implied
C5F4   FB   7C   0B    RTI    A:66    X:47    Y:01    P:EB    SP:FC       BaseAddr:0000    IndirAddr:0000    Implied
0B7C   00   F4   C5    BRK    A:66    X:47    Y:01    P:EB    SP:F9       BaseAddr:0000    IndirAddr:0000    Implied
C5F4   FB   7D   0B    RTI    A:66    X:47    Y:01    P:EB    SP:FC       BaseAddr:0000    IndirAddr:0000    Implied
0B7D   00   F4   C5    BRK    A:66    X:47    Y:01    P:EB    SP:F9       BaseAddr:0000    IndirAddr:0000    Implied
C5F4   FB   7E   0B    RTI    A:66    X:47    Y:01    P:EB    SP:FC       BaseAddr:0000    IndirAddr:0000    Implied
0B7E   00   F4   C5    BRK    A:66    X:47    Y:01    P:EB    SP:F9       BaseAddr:0000    IndirAddr:0000    Implied
C5F4   FB   7F   0B    RTI    A:66    X:47    Y:01    P:EB    SP:FC       BaseAddr:0000    IndirAddr:0000    Implied
0B7F   00   F4   C5    BRK    A:66    X:47    Y:01    P:EB    SP:F9       BaseAddr:0000    IndirAddr:0000    Implied
C5F4   FB   80   0B    RTI    A:66    X:47    Y:01    P:EB    SP:FC       BaseAddr:0000    IndirAddr:0000    Implied
0B80   00   F4   C5    BRK    A:66    X:47    Y:01    P:EB    SP:F9       BaseAddr:0000    IndirAddr:0000    Implied
C5F4   FB   81   0B    RTI    A:66    X:47    Y:01    P:EB    SP:FC       BaseAddr:0000    IndirAddr:0000    Implied
0B81   00   F4   C5    BRK    A:66    X:47    Y:01    P:EB    SP:F9       BaseAddr:0000    IndirAddr:0000    Implied
C5F4   FB   82   0B    RTI    A:66    X:47    Y:01    P:EB    SP:FC       BaseAddr:0000    IndirAddr:0000    Implied
0B82   00   F4   C5    BRK    A:66    X:47    Y:01    P:EB    SP:F9       BaseAddr:0000    IndirAddr:0000    Implied
C5F4   FB   83   0B    RTI    A:66    X:47    Y:01    P:EB    SP:FC       BaseAddr:0000    IndirAddr:0000    Implied
0B83   00   F4   C5    BRK    A:66    X:47    Y:01    P:EB    SP:F9       BaseAddr:0000    IndirAddr:0000    Implied
C5F4   FB   84   0B    RTI    A:66    X:47    Y:01    P:EB    SP:FC       BaseAddr:0000    IndirAddr:0000    Implied
0B84   00   F4   C5    BRK    A:66    X:47    Y:01    P:EB    SP:F9       BaseAddr:0000    IndirAddr:0000    Implied
C5F4   FB   85   0B    RTI    A:66    X:47    Y:01    P:EB    SP:FC       BaseAddr:0000    IndirAddr:0000    Implied
0B85   00   F4   C5    BRK    A:66    X:47    Y:01    P:EB    SP:F9       BaseAddr:0000    IndirAddr:0000    Implied
C5F4   FB   86   0B    RTI    A:66    X:47    Y:01    P:EB    SP:FC       BaseAddr:0000    IndirAddr:0000    Implied
0B86   00   F4   C5    BRK    A:66    X:47    Y:01    P:EB    SP:F9       BaseAddr:0000    IndirAddr:0000    Implied
C5F4   FB   87   0B    RTI    A:66    X:47    Y:01    P:EB    SP:FC       BaseAddr:0000    IndirAddr:0000    Implied
0B87   00   F4   C5    BRK    A:66    X:47    Y:01    P:EB    SP:F9       BaseAddr:0000    IndirAddr:0000    Implied
C5F4   FB   88   0B    RTI    A:66    X:47    Y:01    P:EB    SP:FC       BaseAddr:0000    IndirAddr:0000    Implied
0B88   00   F4   C5    BRK    A:66    X:47    Y:01    P:EB    SP:F9       BaseAddr:0000    IndirAddr:0000    Implied
C5F4   FB   89   0B    RTI    A:66    X:47    Y:01    P:EB    SP:FC       BaseAddr:0000    IndirAddr:0000    Implied
0B89   00   F4   C5    BRK    A:66    X:47    Y:01    P:EB    SP:F9       BaseAddr:0000    IndirAddr:0000    Implied
C5F4   FB   8A   0B    RTI    A:66    X:47    Y:01    P:EB    SP:FC       BaseAddr:0000    IndirAddr:0000    Implied
0B8A   00   F4   C5    BRK    A:66    X:47    Y:01    P:EB    SP:F9       BaseAddr:0000    IndirAddr:0000    Implied
C5F4   FB   8B   0B    RTI    A:66    X:47    Y:01    P:EB    SP:FC       BaseAddr:0000    IndirAddr:0000    Implied
0B8B   00   F4   C5    BRK    A:66    X:47    Y:01    P:EB    SP:F9       BaseAddr:0000    IndirAddr:0000    Implied
C5F4   FB   8C   0B    RTI    A:66    X:47    Y:01    P:EB    SP:FC       BaseAddr:0000    IndirAddr:0000    Implied
0B8C   00   F4   C5    BRK    A:66    X:47    Y:01    P:EB    SP:F9       BaseAddr:0000    IndirAddr:0000    Implied
C5F4   FB   8D   0B    RTI    A:66    X:47    Y:01    P:EB    SP:FC       BaseAddr:0000    IndirAddr:0000    Implied
0B8D   00   F4   C5    BRK    A:66    X:47    Y:01    P:EB    SP:F9       BaseAddr:0000    IndirAddr:0000    Implied
C5F4   FB   8E   0B    RTI    A:66    X:47    Y:01    P:EB    SP:FC       BaseAddr:0000    IndirAddr:0000    Implied
0B8E   00   F4   C5    BRK    A:66    X:47    Y:01    P:EB    SP:F9       BaseAddr:0000    IndirAddr:0000    Implied
C5F4   FB   8F   0B    RTI    A:66    X:47    Y:01    P:EB    SP:FC       BaseAddr:0000    IndirAddr:0000    Implied
0B8F   00   F4   C5    BRK    A:66    X:47    Y:01    P:EB    SP:F9       BaseAddr:0000    IndirAddr:0000    Implied
C5F4   FB   90   0B    RTI    A:66    X:47    Y:01    P:EB    SP:FC       BaseAddr:0000    IndirAddr:0000    Implied
0B90   00   F4   C5    BRK    A:66    X:47    Y:01    P:EB    SP:F9       BaseAddr:0000    IndirAddr:0000    Implied
C5F4   FB   91   0B    RTI    A:66    X:47    Y:01    P:EB    SP:FC       BaseAddr:0000    IndirAddr:0000    Implied
0B91   00   F4   C5    BRK    A:66    X:47    Y:01    P:EB    SP:F9       BaseAddr:0000    IndirAddr:0000    Implied
C5F4   FB   92   0B    RTI    A:66    X:47    Y:01    P:EB    SP:FC       BaseAddr:0000    IndirAddr:0000    Implied
0B92   00   F4   C5    BRK    A:66    X:47    Y:01    P:EB    SP:F9       BaseAddr:0000    IndirAddr:0000    Implied
C5F4   FB   93   0B    RTI    A:66    X:47    Y:01    P:EB    SP:FC       BaseAddr:0000    IndirAddr:0000    Implied
0B93   00   F4   C5    BRK    A:66    X:47    Y:01    P:EB    SP:F9       BaseAddr:0000    IndirAddr:0000    Implied
C5F4   FB   94   0B    RTI    A:66    X:47    Y:01    P:EB    SP:FC       BaseAddr:0000    IndirAddr:0000    Implied
0B94   00   F4   C5    BRK    A:66    X:47    Y:01    P:EB    SP:F9       BaseAddr:0000    IndirAddr:0000    Implied
C5F4   FB   95   0B    RTI    A:66    X:47    Y:01    P:EB    SP:FC       BaseAddr:0000    IndirAddr:0000    Implied
0B95   00   F4   C5    BRK    A:66    X:47    Y:01    P:EB    SP:F9       BaseAddr:0000    IndirAddr:0000    Implied
C5F4   FB   96   0B    RTI    A:66    X:47    Y:01    P:EB    SP:FC       BaseAddr:0000    IndirAddr:0000    Implied
0B96   00   F4   C5    BRK    A:66    X:47    Y:01    P:EB    SP:F9       BaseAddr:0000    IndirAddr:0000    Implied
C5F4   FB   97   0B    RTI    A:66    X:47    Y:01    P:EB    SP:FC       BaseAddr:0000    IndirAddr:0000    Implied
0B97   00   F4   C5    BRK    A:66    X:47    Y:01    P:EB    SP:F9       BaseAddr:0000    IndirAddr:0000    Implied
C5F4   FB   98   0B    RTI    A:66    X:47    Y:01    P:EB    SP:FC       BaseAddr:0000    IndirAddr:0000    Implied
0B98   00   F4   C5    BRK    A:66    X:47    Y:01    P:EB    SP:F9       BaseAddr:0000    IndirAddr:0000    Implied
C5F4   FB   99   0B    RTI    A:66    X:47    Y:01    P:EB    SP:FC       BaseAddr:0000    IndirAddr:0000    Implied
0B99   00   F4   C5    BRK    A:66    X:47    Y:01    P:EB    SP:F9       BaseAddr:0000    IndirAddr:0000    Implied
C5F4   FB   9A   0B    RTI    A:66    X:47    Y:01    P:EB    SP:FC       BaseAddr:0000    IndirAddr:0000    Implied
0B9A   00   F4   C5    BRK    A:66    X:47    Y:01    P:EB    SP:F9       BaseAddr:0000    IndirAddr:0000    Implied
C5F4   FB   9B   0B    RTI    A:66    X:47    Y:01    P:EB    SP:FC       BaseAddr:0000    IndirAddr:0000    Implied
0B9B   00   F4   C5    BRK    A:66    X:47    Y:01    P:EB    SP:F9       BaseAddr:0000    IndirAddr:0000    Implied
C5F4   FB   9C   0B    RTI    A:66    X:47    Y:01    P:EB    SP:FC       BaseAddr:0000    IndirAddr:0000    Implied
0B9C   00   F4   C5    BRK    A:66    X:47    Y:01    P:EB    SP:F9       BaseAddr:0000    IndirAddr:0000    Implied
C5F4   FB   9D   0B    RTI    A:66    X:47    Y:01    P:EB    SP:FC       BaseAddr:0000    IndirAddr:0000    Implied
0B9D   00   F4   C5    BRK    A:66    X:47    Y:01    P:EB    SP:F9       BaseAddr:0000    IndirAddr:0000    Implied
C5F4   FB   9E   0B    RTI    A:66    X:47    Y:01    P:EB    SP:FC       BaseAddr:0000    IndirAddr:0000    Implied
0B9E   00   F4   C5    BRK    A:66    X:47    Y:01    P:EB    SP:F9       BaseAddr:0000    IndirAddr:0000    Implied
C5F4   FB   9F   0B    RTI    A:66    X:47    Y:01    P:EB    SP:FC       BaseAddr:0000    IndirAddr:0000    Implied
0B9F   00   F4   C5    BRK    A:66    X:47    Y:01    P:EB    SP:F9       BaseAddr:0000    IndirAddr:0000    Implied
C5F4   FB   A0   0B    RTI    A:66    X:47    Y:01    P:EB    SP:FC       BaseAddr:0000    IndirAddr:0000    Implied
0BA0   00   F4   C5    BRK    A:66    X:47    Y:01    P:EB    SP:F9       BaseAddr:0000    IndirAddr:0000    Implied
C5F4   FB   A1   0B    RTI    A:66    X:47    Y:01    P:EB    SP:FC       BaseAddr:0000    IndirAddr:0000    Implied
0BA1   00   F4   C5    BRK    A:66    X:47    Y:01    P:EB    SP:F9       BaseAddr:0000    IndirAddr:0000    Implied
C5F4   FB   A2   0B    RTI    A:66    X:47    Y:01    P:EB    SP:FC       BaseAddr:0000    IndirAddr:0000    Implied
0BA2   00   F4   C5    BRK    A:66    X:47    Y:01    P:EB    SP:F9       BaseAddr:0000    IndirAddr:0000    Implied
C5F4   FB   A3   0B    RTI    A:66    X:47    Y:01    P:EB    SP:FC       BaseAddr:0000    IndirAddr:0000    Implied
0BA3   00   F4   C5    BRK    A:66    X:47    Y:01    P:EB    SP:F9       BaseAddr:0000    IndirAddr:0000    Implied
C5F4   FB   A4   0B    RTI    A:66    X:47    Y:01    P:EB    SP:FC       BaseAddr:0000    IndirAddr:0000    Implied
0BA4   00   F4   C5    BRK    A:66    X:47    Y:01    P:EB    SP:F9       BaseAddr:0000    IndirAddr:0000    Implied
C5F4   FB   A5   0B    RTI    A:66    X:47    Y:01    P:EB    SP:FC       BaseAddr:0000    IndirAddr:0000    Implied
0BA5   00   F4   C5    BRK    A:66    X:47    Y:01    P:EB    SP:F9       BaseAddr:0000    IndirAddr:0000    Implied
C5F4   FB   A6   0B    RTI    A:66    X:47    Y:01    P:EB    SP:FC       BaseAddr:0000    IndirAddr:0000    Implied
0BA6   00   F4   C5    BRK    A:66    X:47    Y:01    P:EB    SP:F9       BaseAddr:0000    IndirAddr:0000    Implied
C5F4   FB   A7   0B    RTI    A:66    X:47    Y:01    P:EB    SP:FC       BaseAddr:0000    IndirAddr:0000    Implied
0BA7   00   F4   C5    BRK    A:66    X:47    Y:01    P:EB    SP:F9       BaseAddr:0000    IndirAddr:0000    Implied
C5F4   FB   A8   0B    RTI    A:66    X:47    Y:01    P:EB    SP:FC       BaseAddr:0000    IndirAddr:0000    Implied
0BA8   00   F4   C5    BRK    A:66    X:47    Y:01    P:EB    SP:F9       BaseAddr:0000    IndirAddr:0000    Implied
C5F4   FB   A9   0B    RTI    A:66    X:47    Y:01    P:EB    SP:FC       BaseAddr:0000    IndirAddr:0000    Implied
0BA9   00   F4   C5    BRK    A:66    X:47    Y:01    P:EB    SP:F9       BaseAddr:0000    IndirAddr:0000    Implied
C5F4   FB   AA   0B    RTI    A:66    X:47    Y:01    P:EB    SP:FC       BaseAddr:0000    IndirAddr:0000    Implied
0BAA   00   F4   C5    BRK    A:66    X:47    Y:01    P:EB    SP:F9       BaseAddr:0000    IndirAddr:0000    Implied
C5F4   FB   AB   0B    RTI    A:66    X:47    Y:01    P:EB    SP:FC       BaseAddr:0000    IndirAddr:0000    Implied
0BAB   00   F4   C5    BRK    A:66    X:47    Y:01    P:EB    SP:F9       BaseAddr:0000    IndirAddr:0000    Implied
C5F4   FB   AC   0B    RTI    A:66    X:47    Y:01    P:EB    SP:FC       BaseAddr:0000    IndirAddr:0000    Implied
0BAC   00   F4   C5    BRK    A:66    X:47    Y:01    P:EB    SP:F9       BaseAddr:0000    IndirAddr:0000    Implied
C5F4   FB   AD   0B    RTI    A:66    X:47    Y:01    P:EB    SP:FC       BaseAddr:0000    IndirAddr:0000    Implied
0BAD   00   F4   C5    BRK    A:66    X:47    Y:01    P:EB    SP:F9       BaseAddr:0000    IndirAddr:0000    Implied
C5F4   FB   AE   0B    RTI    A:66    X:47    Y:01    P:EB    SP:FC       BaseAddr:0000    IndirAddr:0000    Implied
0BAE   00   F4   C5    BRK    A:66    X:47    Y:01    P:EB    SP:F9       BaseAddr:0000    IndirAddr:0000    Implied
C5F4   FB   AF   0B    RTI    A:66    X:47    Y:01    P:EB    SP:FC       BaseAddr:0000    IndirAddr:0000    Implied
0BAF   00   F4   C5    BRK    A:66    X:47    Y:01    P:EB    SP:F9       BaseAddr:0000    IndirAddr:0000    Implied
C5F4   FB   B0   0B    RTI    A:66    X:47    Y:01    P:EB    SP:FC       BaseAddr:0000    IndirAddr:0000    Implied
0BB0   00   F4   C5    BRK    A:66    X:47    Y:01    P:EB    SP:F9       BaseAddr:0000    IndirAddr:0000    Implied
C5F4   FB   B1   0B    RTI    A:66    X:47    Y:01    P:EB    SP:FC       BaseAddr:0000    IndirAddr:0000    Implied
0BB1   00   F4   C5    BRK    A:66    X:47    Y:01    P:EB    SP:F9       BaseAddr:0000    IndirAddr:0000    Implied
C5F4   FB   B2   0B    RTI    A:66    X:47    Y:01    P:EB    SP:FC       BaseAddr:0000    IndirAddr:0000    Implied
0BB2   00   F4   C5    BRK    A:66    X:47    Y:01    P:EB    SP:F9       BaseAddr:0000    IndirAddr:0000    Implied
C5F4   FB   B3   0B    RTI    A:66    X:47    Y:01    P:EB    SP:FC       BaseAddr:0000    IndirAddr:0000    Implied
0BB3   00   F4   C5    BRK    A:66    X:47    Y:01    P:EB    SP:F9       BaseAddr:0000    IndirAddr:0000    Implied
C5F4   FB   B4   0B    RTI    A:66    X:47    Y:01    P:EB    SP:FC       BaseAddr:0000    IndirAddr:0000    Implied
0BB4   00   F4   C5    BRK    A:66    X:47    Y:01    P:EB    SP:F9       BaseAddr:0000    IndirAddr:0000    Implied
C5F4   FB   B5   0B    RTI    A:66    X:47    Y:01    P:EB    SP:FC       BaseAddr:0000    IndirAddr:0000    Implied
0BB5   00   F4   C5    BRK    A:66    X:47    Y:01    P:EB    SP:F9       BaseAddr:0000    IndirAddr:0000    Implied
C5F4   FB   B6   0B    RTI    A:66    X:47    Y:01    P:EB    SP:FC       BaseAddr:0000    IndirAddr:0000    Implied
0BB6   00   F4   C5    BRK    A:66    X:47    Y:01    P:EB    SP:F9       BaseAddr:0000    IndirAddr:0000    Implied
C5F4   FB   B7   0B    RTI    A:66    X:47    Y:01    P:EB    SP:FC       BaseAddr:0000    IndirAddr:0000    Implied
0BB7   00   F4   C5    BRK    A:66    X:47    Y:01    P:EB    SP:F9       BaseAddr:0000    IndirAddr:0000    Implied
C5F4   FB   B8   0B    RTI    A:66    X:47    Y:01    P:EB    SP:FC       BaseAddr:0000    IndirAddr:0000    Implied
0BB8   00   F4   C5    BRK    A:66    X:47    Y:01    P:EB    SP:F9       BaseAddr:0000    IndirAddr:0000    Implied
C5F4   FB   B9   0B    RTI    A:66    X:47    Y:01    P:EB    SP:FC       BaseAddr:0000    IndirAddr:0000    Implied
0BB9   00   F4   C5    BRK    A:66    X:47    Y:01    P:EB    SP:F9       BaseAddr:0000    IndirAddr:0000    Implied
C5F4   FB   BA   0B    RTI    A:66    X:47    Y:01    P:EB    SP:FC       BaseAddr:0000    IndirAddr:0000    Implied
0BBA   00   F4   C5    BRK    A:66    X:47    Y:01    P:EB    SP:F9       BaseAddr:0000    IndirAddr:0000    Implied
C5F4   FB   BB   0B    RTI    A:66    X:47    Y:01    P:EB    SP:FC       BaseAddr:0000    IndirAddr:0000    Implied
0BBB   00   F4   C5    BRK    A:66    X:47    Y:01    P:EB    SP:F9       BaseAddr:0000    IndirAddr:0000    Implied
C5F4   FB   BC   0B    RTI    A:66    X:47    Y:01    P:EB    SP:FC       BaseAddr:0000    IndirAddr:0000    Implied
0BBC   00   F4   C5    BRK    A:66    X:47    Y:01    P:EB    SP:F9       BaseAddr:0000    IndirAddr:0000    Implied
C5F4   FB   BD   0B    RTI    A:66    X:47    Y:01    P:EB    SP:FC       BaseAddr:0000    IndirAddr:0000    Implied
0BBD   00   F4   C5    BRK    A:66    X:47    Y:01    P:EB    SP:F9       BaseAddr:0000    IndirAddr:0000    Implied
C5F4   FB   BE   0B    RTI    A:66    X:47    Y:01    P:EB    SP:FC       BaseAddr:0000    IndirAddr:0000    Implied
0BBE   00   F4   C5    BRK    A:66    X:47    Y:01    P:EB    SP:F9       BaseAddr:0000    IndirAddr:0000    Implied
C5F4   FB   BF   0B    RTI    A:66    X:47    Y:01    P:EB    SP:FC       BaseAddr:0000    IndirAddr:0000    Implied
0BBF   00   F4   C5    BRK    A:66    X:47    Y:01    P:EB    SP:F9       BaseAddr:0000    IndirAddr:0000    Implied
C5F4   FB   C0   0B    RTI    A:66    X:47    Y:01    P:EB    SP:FC       BaseAddr:0000    IndirAddr:0000    Implied
0BC0   00   F4   C5    BRK    A:66    X:47    Y:01    P:EB    SP:F9       BaseAddr:0000    IndirAddr:0000    Implied
C5F4   FB   C1   0B    RTI    A:66    X:47    Y:01    P:EB    SP:FC       BaseAddr:0000    IndirAddr:0000    Implied
0BC1   00   F4   C5    BRK    A:66    X:47    Y:01    P:EB    SP:F9       BaseAddr:0000    IndirAddr:0000    Implied
C5F4   FB   C2   0B    RTI    A:66    X:47    Y:01    P:EB    SP:FC       BaseAddr:0000    IndirAddr:0000    Implied
0BC2   00   F4   C5    BRK    A:66    X:47    Y:01    P:EB    SP:F9       BaseAddr:0000    IndirAddr:0000    Implied
C5F4   FB   C3   0B    RTI    A:66    X:47    Y:01    P:EB    SP:FC       BaseAddr:0000    IndirAddr:0000    Implied
0BC3   00   F4   C5    BRK    A:66    X:47    Y:01    P:EB    SP:F9       BaseAddr:0000    IndirAddr:0000    Implied
C5F4   FB   C4   0B    RTI    A:66    X:47    Y:01    P:EB    SP:FC       BaseAddr:0000    IndirAddr:0000    Implied
0BC4   00   F4   C5    BRK    A:66    X:47    Y:01    P:EB    SP:F9       BaseAddr:0000    IndirAddr:0000    Implied
C5F4   FB   C5   0B    RTI    A:66    X:47    Y:01    P:EB    SP:FC       BaseAddr:0000    IndirAddr:0000    Implied
0BC5   00   F4   C5    BRK    A:66    X:47    Y:01    P:EB    SP:F9       BaseAddr:0000    IndirAddr:0000    Implied
C5F4   FB   C6   0B    RTI    A:66    X:47    Y:01    P:EB    SP:FC       BaseAddr:0000    IndirAddr:0000    Implied
0BC6   00   F4   C5    BRK    A:66    X:47    Y:01    P:EB    SP:F9       BaseAddr:0000    IndirAddr:0000    Implied
C5F4   FB   C7   0B    RTI    A:66    X:47    Y:01    P:EB    SP:FC       BaseAddr:0000    IndirAddr:0000    Implied
0BC7   00   F4   C5    BRK    A:66    X:47    Y:01    P:EB    SP:F9       BaseAddr:0000    IndirAddr:0000    Implied
C5F4   FB   C8   0B    RTI    A:66    X:47    Y:01    P:EB    SP:FC       BaseAddr:0000    IndirAddr:0000    Implied
0BC8   00   F4   C5    BRK    A:66    X:47    Y:01    P:EB    SP:F9       BaseAddr:0000    IndirAddr:0000    Implied
C5F4   FB   C9   0B    RTI    A:66    X:47    Y:01    P:EB    SP:FC       BaseAddr:0000    IndirAddr:0000    Implied
0BC9   00   F4   C5    BRK    A:66    X:47    Y:01    P:EB    SP:F9       BaseAddr:0000    IndirAddr:0000    Implied
C5F4   FB   CA   0B    RTI    A:66    X:47    Y:01    P:EB    SP:FC       BaseAddr:0000    IndirAddr:0000    Implied
0BCA   00   F4   C5    BRK    A:66    X:47    Y:01    P:EB    SP:F9       BaseAddr:0000    IndirAddr:0000    Implied
C5F4   FB   CB   0B    RTI    A:66    X:47    Y:01    P:EB    SP:FC       BaseAddr:0000    IndirAddr:0000    Implied
0BCB   00   F4   C5    BRK    A:66    X:47    Y:01    P:EB    SP:F9       BaseAddr:0000    IndirAddr:0000    Implied
C5F4   FB   CC   0B    RTI    A:66    X:47    Y:01    P:EB    SP:FC       BaseAddr:0000    IndirAddr:0000    Implied
0BCC   00   F4   C5    BRK    A:66    X:47    Y:01    P:EB    SP:F9       BaseAddr:0000    IndirAddr:0000    Implied
C5F4   FB   CD   0B    RTI    A:66    X:47    Y:01    P:EB    SP:FC       BaseAddr:0000    IndirAddr:0000    Implied
0BCD   00   F4   C5    BRK    A:66    X:47    Y:01    P:EB    SP:F9       BaseAddr:0000    IndirAddr:0000    Implied
C5F4   FB   CE   0B    RTI    A:66    X:47    Y:01    P:EB    SP:FC       BaseAddr:0000    IndirAddr:0000    Implied
0BCE   00   F4   C5    BRK    A:66    X:47    Y:01    P:EB    SP:F9       BaseAddr:0000    IndirAddr:0000    Implied
C5F4   FB   CF   0B    RTI    A:66    X:47    Y:01    P:EB    SP:FC       BaseAddr:0000    IndirAddr:0000    Implied
0BCF   00   F4   C5    BRK    A:66    X:47    Y:01    P:EB    SP:F9       BaseAddr:0000    IndirAddr:0000    Implied
C5F4   FB   D0   0B    RTI    A:66    X:47    Y:01    P:EB    SP:FC       BaseAddr:0000    IndirAddr:0000    Implied
0BD0   00   F4   C5    BRK    A:66    X:47    Y:01    P:EB    SP:F9       BaseAddr:0000    IndirAddr:0000    Implied
C5F4   FB   D1   0B    RTI    A:66    X:47    Y:01    P:EB    SP:FC       BaseAddr:0000    IndirAddr:0000    Implied
0BD1   00   F4   C5    BRK    A:66    X:47    Y:01    P:EB    SP:F9       BaseAddr:0000    IndirAddr:0000    Implied
C5F4   FB   D2   0B    RTI    A:66    X:47    Y:01    P:EB    SP:FC       BaseAddr:0000    IndirAddr:0000    Implied
0BD2   00   F4   C5    BRK    A:66    X:47    Y:01    P:EB    SP:F9       BaseAddr:0000    IndirAddr:0000    Implied
C5F4   FB   D3   0B    RTI    A:66    X:47    Y:01    P:EB    SP:FC       BaseAddr:0000    IndirAddr:0000    Implied
0BD3   00   F4   C5    BRK    A:66    X:47    Y:01    P:EB    SP:F9       BaseAddr:0000    IndirAddr:0000    Implied
C5F4   FB   D4   0B    RTI    A:66    X:47    Y:01    P:EB    SP:FC       BaseAddr:0000    IndirAddr:0000    Implied
0BD4   00   F4   C5    BRK    A:66    X:47    Y:01    P:EB    SP:F9       BaseAddr:0000    IndirAddr:0000    Implied
C5F4   FB   D5   0B    RTI    A:66    X:47    Y:01    P:EB    SP:FC       BaseAddr:0000    IndirAddr:0000    Implied
0BD5   00   F4   C5    BRK    A:66    X:47    Y:01    P:EB    SP:F9       BaseAddr:0000    IndirAddr:0000    Implied
C5F4   FB   D6   0B    RTI    A:66    X:47    Y:01    P:EB    SP:FC       BaseAddr:0000    IndirAddr:0000    Implied
0BD6   00   F4   C5    BRK    A:66    X:47    Y:01    P:EB    SP:F9       BaseAddr:0000    IndirAddr:0000    Implied
C5F4   FB   D7   0B    RTI    A:66    X:47    Y:01    P:EB    SP:FC       BaseAddr:0000    IndirAddr:0000    Implied
0BD7   00   F4   C5    BRK    A:66    X:47    Y:01    P:EB    SP:F9       BaseAddr:0000    IndirAddr:0000    Implied
C5F4   FB   D8   0B    RTI    A:66    X:47    Y:01    P:EB    SP:FC       BaseAddr:0000    IndirAddr:0000    Implied
0BD8   00   F4   C5    BRK    A:66    X:47    Y:01    P:EB    SP:F9       BaseAddr:0000    IndirAddr:0000    Implied
C5F4   FB   D9   0B    RTI    A:66    X:47    Y:01    P:EB    SP:FC       BaseAddr:0000    IndirAddr:0000    Implied
0BD9   00   F4   C5    BRK    A:66    X:47    Y:01    P:EB    SP:F9       BaseAddr:0000    IndirAddr:0000    Implied
C5F4   FB   DA   0B    RTI    A:66    X:47    Y:01    P:EB    SP:FC       BaseAddr:0000    IndirAddr:0000    Implied
0BDA   00   F4   C5    BRK    A:66    X:47    Y:01    P:EB    SP:F9       BaseAddr:0000    IndirAddr:0000    Implied
C5F4   FB   DB   0B    RTI    A:66    X:47    Y:01    P:EB    SP:FC       BaseAddr:0000    IndirAddr:0000    Implied
0BDB   00   F4   C5    BRK    A:66    X:47    Y:01    P:EB    SP:F9       BaseAddr:0000    IndirAddr:0000    Implied
C5F4   FB   DC   0B    RTI    A:66    X:47    Y:01    P:EB    SP:FC       BaseAddr:0000    IndirAddr:0000    Implied
0BDC   00   F4   C5    BRK    A:66    X:47    Y:01    P:EB    SP:F9       BaseAddr:0000    IndirAddr:0000    Implied
C5F4   FB   DD   0B    RTI    A:66    X:47    Y:01    P:EB    SP:FC       BaseAddr:0000    IndirAddr:0000    Implied
0BDD   00   F4   C5    BRK    A:66    X:47    Y:01    P:EB    SP:F9       BaseAddr:0000    IndirAddr:0000    Implied
C5F4   FB   DE   0B    RTI    A:66    X:47    Y:01    P:EB    SP:FC       BaseAddr:0000    IndirAddr:0000    Implied
0BDE   00   F4   C5    BRK    A:66    X:47    Y:01    P:EB    SP:F9       BaseAddr:0000    IndirAddr:0000    Implied
C5F4   FB   DF   0B    RTI    A:66    X:47    Y:01    P:EB    SP:FC       BaseAddr:0000    IndirAddr:0000    Implied
0BDF   00   F4   C5    BRK    A:66    X:47    Y:01    P:EB    SP:F9       BaseAddr:0000    IndirAddr:0000    Implied
C5F4   FB   E0   0B    RTI    A:66    X:47    Y:01    P:EB    SP:FC       BaseAddr:0000    IndirAddr:0000    Implied
0BE0   00   F4   C5    BRK    A:66    X:47    Y:01    P:EB    SP:F9       BaseAddr:0000    IndirAddr:0000    Implied
C5F4   FB   E1   0B    RTI    A:66    X:47    Y:01    P:EB    SP:FC       BaseAddr:0000    IndirAddr:0000    Implied
0BE1   00   F4   C5    BRK    A:66    X:47    Y:01    P:EB    SP:F9       BaseAddr:0000    IndirAddr:0000    Implied
C5F4   FB   E2   0B    RTI    A:66    X:47    Y:01    P:EB    SP:FC       BaseAddr:0000    IndirAddr:0000    Implied
0BE2   00   F4   C5    BRK    A:66    X:47    Y:01    P:EB    SP:F9       BaseAddr:0000    IndirAddr:0000    Implied
C5F4   FB   E3   0B    RTI    A:66    X:47    Y:01    P:EB    SP:FC       BaseAddr:0000    IndirAddr:0000    Implied
0BE3   00   F4   C5    BRK    A:66    X:47    Y:01    P:EB    SP:F9       BaseAddr:0000    IndirAddr:0000    Implied
C5F4   FB   E4   0B    RTI    A:66    X:47    Y:01    P:EB    SP:FC       BaseAddr:0000    IndirAddr:0000    Implied
0BE4   00   F4   C5    BRK    A:66    X:47    Y:01    P:EB    SP:F9       BaseAddr:0000    IndirAddr:0000    Implied
C5F4   FB   E5   0B    RTI    A:66    X:47    Y:01    P:EB    SP:FC       BaseAddr:0000    IndirAddr:0000    Implied
0BE5   00   F4   C5    BRK    A:66    X:47    Y:01    P:EB    SP:F9       BaseAddr:0000    IndirAddr:0000    Implied
C5F4   FB   E6   0B    RTI    A:66    X:47    Y:01    P:EB    SP:FC       BaseAddr:0000    IndirAddr:0000    Implied
0BE6   00   F4   C5    BRK    A:66    X:47    Y:01    P:EB    SP:F9       BaseAddr:0000    IndirAddr:0000    Implied
C5F4   FB   E7   0B    RTI    A:66    X:47    Y:01    P:EB    SP:FC       BaseAddr:0000    IndirAddr:0000    Implied
0BE7   00   F4   C5    BRK    A:66    X:47    Y:01    P:EB    SP:F9       BaseAddr:0000    IndirAddr:0000    Implied
C5F4   FB   E8   0B    RTI    A:66    X:47    Y:01    P:EB    SP:FC       BaseAddr:0000    IndirAddr:0000    Implied
0BE8   00   F4   C5    BRK    A:66    X:47    Y:01    P:EB    SP:F9       BaseAddr:0000    IndirAddr:0000    Implied
C5F4   FB   E9   0B    RTI    A:66    X:47    Y:01    P:EB    SP:FC       BaseAddr:0000    IndirAddr:0000    Implied
0BE9   00   F4   C5    BRK    A:66    X:47    Y:01    P:EB    SP:F9       BaseAddr:0000    IndirAddr:0000    Implied
C5F4   FB   EA   0B    RTI    A:66    X:47    Y:01    P:EB    SP:FC       BaseAddr:0000    IndirAddr:0000    Implied
0BEA   00   F4   C5    BRK    A:66    X:47    Y:01    P:EB    SP:F9       BaseAddr:0000    IndirAddr:0000    Implied
C5F4   FB   EB   0B    RTI    A:66    X:47    Y:01    P:EB    SP:FC       BaseAddr:0000    IndirAddr:0000    Implied
0BEB   00   F4   C5    BRK    A:66    X:47    Y:01    P:EB    SP:F9       BaseAddr:0000    IndirAddr:0000    Implied
C5F4   FB   EC   0B    RTI    A:66    X:47    Y:01    P:EB    SP:FC       BaseAddr:0000    IndirAddr:0000    Implied
0BEC   00   F4   C5    BRK    A:66    X:47    Y:01    P:EB    SP:F9       BaseAddr:0000    IndirAddr:0000    Implied
C5F4   FB   ED   0B    RTI    A:66    X:47    Y:01    P:EB    SP:FC       BaseAddr:0000    IndirAddr:0000    Implied
0BED   00   F4   C5    BRK    A:66    X:47    Y:01    P:EB    SP:F9       BaseAddr:0000    IndirAddr:0000    Implied
C5F4   FB   EE   0B    RTI    A:66    X:47    Y:01    P:EB    SP:FC       BaseAddr:0000    IndirAddr:0000    Implied
0BEE   00   F4   C5    BRK    A:66    X:47    Y:01    P:EB    SP:F9       BaseAddr:0000    IndirAddr:0000    Implied
C5F4   FB   EF   0B    RTI    A:66    X:47    Y:01    P:EB    SP:FC       BaseAddr:0000    IndirAddr:0000    Implied
0BEF   00   F4   C5    BRK    A:66    X:47    Y:01    P:EB    SP:F9       BaseAddr:0000    IndirAddr:0000    Implied
C5F4   FB   F0   0B    RTI    A:66    X:47    Y:01    P:EB    SP:FC       BaseAddr:0000    IndirAddr:0000    Implied
0BF0   00   F4   C5    BRK    A:66    X:47    Y:01    P:EB    SP:F9       BaseAddr:0000    IndirAddr:0000    Implied
C5F4   FB   F1   0B    RTI    A:66    X:47    Y:01    P:EB    SP:FC       BaseAddr:0000    IndirAddr:0000    Implied
0BF1   00   F4   C5    BRK    A:66    X:47    Y:01    P:EB    SP:F9       BaseAddr:0000    IndirAddr:0000    Implied
C5F4   FB   F2   0B    RTI    A:66    X:47    Y:01    P:EB    SP:FC       BaseAddr:0000    IndirAddr:0000    Implied
0BF2   00   F4   C5    BRK    A:66    X:47    Y:01    P:EB    SP:F9       BaseAddr:0000    IndirAddr:0000    Implied
C5F4   FB   F3   0B    RTI    A:66    X:47    Y:01    P:EB    SP:FC       BaseAddr:0000    IndirAddr:0000    Implied
0BF3   00   F4   C5    BRK    A:66    X:47    Y:01    P:EB    SP:F9       BaseAddr:0000    IndirAddr:0000    Implied
C5F4   FB   F4   0B    RTI    A:66    X:47    Y:01    P:EB    SP:FC       BaseAddr:0000    IndirAddr:0000    Implied
0BF4   00   F4   C5    BRK    A:66    X:47    Y:01    P:EB    SP:F9       BaseAddr:0000    IndirAddr:0000    Implied
C5F4   FB   F5   0B    RTI    A:66    X:47    Y:01    P:EB    SP:FC       BaseAddr:0000    IndirAddr:0000    Implied
0BF5   00   F4   C5    BRK    A:66    X:47    Y:01    P:EB    SP:F9       BaseAddr:0000    IndirAddr:0000    Implied
C5F4   FB   F6   0B    RTI    A:66    X:47    Y:01    P:EB    SP:FC       BaseAddr:0000    IndirAddr:0000    Implied
0BF6   00   F4   C5    BRK    A:66    X:47    Y:01    P:EB    SP:F9       BaseAddr:0000    IndirAddr:0000    Implied
C5F4   FB   F7   0B    RTI    A:66    X:47    Y:01    P:EB    SP:FC       BaseAddr:0000    IndirAddr:0000    Implied
0BF7   00   F4   C5    BRK    A:66    X:47    Y:01    P:EB    SP:F9       BaseAddr:0000    IndirAddr:0000    Implied
C5F4   FB   F8   0B    RTI    A:66    X:47    Y:01    P:EB    SP:FC       BaseAddr:0000    IndirAddr:0000    Implied
0BF8   00   F4   C5    BRK    A:66    X:47    Y:01    P:EB    SP:F9       BaseAddr:0000    IndirAddr:0000    Implied
C5F4   FB   F9   0B    RTI    A:66    X:47    Y:01    P:EB    SP:FC       BaseAddr:0000    IndirAddr:0000    Implied
0BF9   00   F4   C5    BRK    A:66    X:47    Y:01    P:EB    SP:F9       BaseAddr:0000    IndirAddr:0000    Implied
C5F4   FB   FA   0B    RTI    A:66    X:47    Y:01    P:EB    SP:FC       BaseAddr:0000    IndirAddr:0000    Implied
0BFA   00   F4   C5    BRK    A:66    X:47    Y:01    P:EB    SP:F9       BaseAddr:0000    IndirAddr:0000    Implied
C5F4   FB   FB   0B    RTI    A:66    X:47    Y:01    P:EB    SP:FC       BaseAddr:0000    IndirAddr:0000    Implied
0BFB   00   F4   C5    BRK    A:66    X:47    Y:01    P:EB    SP:F9       BaseAddr:0000    IndirAddr:0000    Implied
C5F4   FB   FC   0B    RTI    A:66    X:47    Y:01    P:EB    SP:FC       BaseAddr:0000    IndirAddr:0000    Implied
0BFC   00   F4   C5    BRK    A:66    X:47    Y:01    P:EB    SP:F9       BaseAddr:0000    IndirAddr:0000    Implied
C5F4   FB   FD   0B    RTI    A:66    X:47    Y:01    P:EB    SP:FC       BaseAddr:0000    IndirAddr:0000    Implied
0BFD   00   F4   C5    BRK    A:66    X:47    Y:01    P:EB    SP:F9       BaseAddr:0000    IndirAddr:0000    Implied
C5F4   FB   FE   0B    RTI    A:66    X:47    Y:01    P:EB    SP:FC       BaseAddr:0000    IndirAddr:0000    Implied
0BFE   00   F4   C5    BRK    A:66    X:47    Y:01    P:EB    SP:F9       BaseAddr:0000    IndirAddr:0000    Implied
C5F4   FB   FF   0B    RTI    A:66    X:47    Y:01    P:EB    SP:FC       BaseAddr:0000    IndirAddr:0000    Implied
0BFF   00   F4   C5    BRK    A:66    X:47    Y:01    P:EB    SP:F9       BaseAddr:0000    IndirAddr:0000    Implied
C5F4   FB   00   0C    RTI    A:66    X:47    Y:01    P:EB    SP:FC       BaseAddr:0000    IndirAddr:0000    Implied
0C00   00   F4   C5    BRK    A:66    X:47    Y:01    P:EB    SP:F9       BaseAddr:0000    IndirAddr:0000    Implied
C5F4   FB   01   0C    RTI    A:66    X:47    Y:01    P:EB    SP:FC       BaseAddr:0000    IndirAddr:0000    Implied
0C01   00   F4   C5    BRK    A:66    X:47    Y:01    P:EB    SP:F9       BaseAddr:0000    IndirAddr:0000    Implied
C5F4   FB   02   0C    RTI    A:66    X:47    Y:01    P:EB    SP:FC       BaseAddr:0000    IndirAddr:0000    Implied
0C02   00   F4   C5    BRK    A:66    X:47    Y:01    P:EB    SP:F9       BaseAddr:0000    IndirAddr:0000    Implied
C5F4   FB   03   0C    RTI    A:66    X:47    Y:01    P:EB    SP:FC       BaseAddr:0000    IndirAddr:0000    Implied
0C03   00   F4   C5    BRK    A:66    X:47    Y:01    P:EB    SP:F9       BaseAddr:0000    IndirAddr:0000    Implied
C5F4   FB   04   0C    RTI    A:66    X:47    Y:01    P:EB    SP:FC       BaseAddr:0000    IndirAddr:0000    Implied
0C04   00   F4   C5    BRK    A:66    X:47    Y:01    P:EB    SP:F9       BaseAddr:0000    IndirAddr:0000    Implied
C5F4   FB   05   0C    RTI    A:66    X:47    Y:01    P:EB    SP:FC       BaseAddr:0000    IndirAddr:0000    Implied
0C05   00   F4   C5    BRK    A:66    X:47    Y:01    P:EB    SP:F9       BaseAddr:0000    IndirAddr:0000    Implied
C5F4   FB   06   0C    RTI    A:66    X:47    Y:01    P:EB    SP:FC       BaseAddr:0000    IndirAddr:0000    Implied
0C06   00   F4   C5    BRK    A:66    X:47    Y:01    P:EB    SP:F9       BaseAddr:0000    IndirAddr:0000    Implied
C5F4   FB   07   0C    RTI    A:66    X:47    Y:01    P:EB    SP:FC       BaseAddr:0000    IndirAddr:0000    Implied
0C07   00   F4   C5    BRK    A:66    X:47    Y:01    P:EB    SP:F9       BaseAddr:0000    IndirAddr:0000    Implied
C5F4   FB   08   0C    RTI    A:66    X:47    Y:01    P:EB    SP:FC       BaseAddr:0000    IndirAddr:0000    Implied
0C08   00   F4   C5    BRK    A:66    X:47    Y:01    P:EB    SP:F9       BaseAddr:0000    IndirAddr:0000    Implied
C5F4   FB   09   0C    RTI    A:66    X:47    Y:01    P:EB    SP:FC       BaseAddr:0000    IndirAddr:0000    Implied
0C09   00   F4   C5    BRK    A:66    X:47    Y:01    P:EB    SP:F9       BaseAddr:0000    IndirAddr:0000    Implied
C5F4   FB   0A   0C    RTI    A:66    X:47    Y:01    P:EB    SP:FC       BaseAddr:0000    IndirAddr:0000    Implied
0C0A   00   F4   C5    BRK    A:66    X:47    Y:01    P:EB    SP:F9       BaseAddr:0000    IndirAddr:0000    Implied
C5F4   FB   0B   0C    RTI    A:66    X:47    Y:01    P:EB    SP:FC       BaseAddr:0000    IndirAddr:0000    Implied
0C0B   00   F4   C5    BRK    A:66    X:47    Y:01    P:EB    SP:F9       BaseAddr:0000    IndirAddr:0000    Implied
C5F4   FB   0C   0C    RTI    A:66    X:47    Y:01    P:EB    SP:FC       BaseAddr:0000    IndirAddr:0000    Implied
0C0C   00   F4   C5    BRK    A:66    X:47    Y:01    P:EB    SP:F9       BaseAddr:0000    IndirAddr:0000    Implied
C5F4   FB   0D   0C    RTI    A:66    X:47    Y:01    P:EB    SP:FC       BaseAddr:0000    IndirAddr:0000    Implied
0C0D   00   F4   C5    BRK    A:66    X:47    Y:01    P:EB    SP:F9       BaseAddr:0000    IndirAddr:0000    Implied
C5F4   FB   0E   0C    RTI    A:66    X:47    Y:01    P:EB    SP:FC       BaseAddr:0000    IndirAddr:0000    Implied
0C0E   00   F4   C5    BRK    A:66    X:47    Y:01    P:EB    SP:F9       BaseAddr:0000    IndirAddr:0000    Implied
C5F4   FB   0F   0C    RTI    A:66    X:47    Y:01    P:EB    SP:FC       BaseAddr:0000    IndirAddr:0000    Implied
0C0F   00   F4   C5    BRK    A:66    X:47    Y:01    P:EB    SP:F9       BaseAddr:0000    IndirAddr:0000    Implied
C5F4   FB   10   0C    RTI    A:66    X:47    Y:01    P:EB    SP:FC       BaseAddr:0000    IndirAddr:0000    Implied
0C10   00   F4   C5    BRK    A:66    X:47    Y:01    P:EB    SP:F9       BaseAddr:0000    IndirAddr:0000    Implied
C5F4   FB   11   0C    RTI    A:66    X:47    Y:01    P:EB    SP:FC       BaseAddr:0000    IndirAddr:0000    Implied
0C11   00   F4   C5    BRK    A:66    X:47    Y:01    P:EB    SP:F9       BaseAddr:0000    IndirAddr:0000    Implied
C5F4   FB   12   0C    RTI    A:66    X:47    Y:01    P:EB    SP:FC       BaseAddr:0000    IndirAddr:0000    Implied
0C12   00   F4   C5    BRK    A:66    X:47    Y:01    P:EB    SP:F9       BaseAddr:0000    IndirAddr:0000    Implied
C5F4   FB   13   0C    RTI    A:66    X:47    Y:01    P:EB    SP:FC       BaseAddr:0000    IndirAddr:0000    Implied
0C13   00   F4   C5    BRK    A:66    X:47    Y:01    P:EB    SP:F9       BaseAddr:0000    IndirAddr:0000    Implied
C5F4   FB   14   0C    RTI    A:66    X:47    Y:01    P:EB    SP:FC       BaseAddr:0000    IndirAddr:0000    Implied
0C14   00   F4   C5    BRK    A:66    X:47    Y:01    P:EB    SP:F9       BaseAddr:0000    IndirAddr:0000    Implied
C5F4   FB   15   0C    RTI    A:66    X:47    Y:01    P:EB    SP:FC       BaseAddr:0000    IndirAddr:0000    Implied
0C15   00   F4   C5    BRK    A:66    X:47    Y:01    P:EB    SP:F9       BaseAddr:0000    IndirAddr:0000    Implied
C5F4   FB   16   0C    RTI    A:66    X:47    Y:01    P:EB    SP:FC       BaseAddr:0000    IndirAddr:0000    Implied
0C16   00   F4   C5    BRK    A:66    X:47    Y:01    P:EB    SP:F9       BaseAddr:0000    IndirAddr:0000    Implied
C5F4   FB   17   0C    RTI    A:66    X:47    Y:01    P:EB    SP:FC       BaseAddr:0000    IndirAddr:0000    Implied
0C17   00   F4   C5    BRK    A:66    X:47    Y:01    P:EB    SP:F9       BaseAddr:0000    IndirAddr:0000    Implied
C5F4   FB   18   0C    RTI    A:66    X:47    Y:01    P:EB    SP:FC       BaseAddr:0000    IndirAddr:0000    Implied
0C18   00   F4   C5    BRK    A:66    X:47    Y:01    P:EB    SP:F9       BaseAddr:0000    IndirAddr:0000    Implied
C5F4   FB   19   0C    RTI    A:66    X:47    Y:01    P:EB    SP:FC       BaseAddr:0000    IndirAddr:0000    Implied
0C19   00   F4   C5    BRK    A:66    X:47    Y:01    P:EB    SP:F9       BaseAddr:0000    IndirAddr:0000    Implied
C5F4   FB   1A   0C    RTI    A:66    X:47    Y:01    P:EB    SP:FC       BaseAddr:0000    IndirAddr:0000    Implied
0C1A   00   F4   C5    BRK    A:66    X:47    Y:01    P:EB    SP:F9       BaseAddr:0000    IndirAddr:0000    Implied
C5F4   FB   1B   0C    RTI    A:66    X:47    Y:01    P:EB    SP:FC       BaseAddr:0000    IndirAddr:0000    Implied
0C1B   00   F4   C5    BRK    A:66    X:47    Y:01    P:EB    SP:F9       BaseAddr:0000    IndirAddr:0000    Implied
C5F4   FB   1C   0C    RTI    A:66    X:47    Y:01    P:EB    SP:FC       BaseAddr:0000    IndirAddr:0000    Implied
0C1C   00   F4   C5    BRK    A:66    X:47    Y:01    P:EB    SP:F9       BaseAddr:0000    IndirAddr:0000    Implied
C5F4   FB   1D   0C    RTI    A:66    X:47    Y:01    P:EB    SP:FC       BaseAddr:0000    IndirAddr:0000    Implied
0C1D   00   F4   C5    BRK    A:66    X:47    Y:01    P:EB    SP:F9       BaseAddr:0000    IndirAddr:0000    Implied
C5F4   FB   1E   0C    RTI    A:66    X:47    Y:01    P:EB    SP:FC       BaseAddr:0000    IndirAddr:0000    Implied
0C1E   00   F4   C5    BRK    A:66    X:47    Y:01    P:EB    SP:F9       BaseAddr:0000    IndirAddr:0000    Implied
C5F4   FB   1F   0C    RTI    A:66    X:47    Y:01    P:EB    SP:FC       BaseAddr:0000    IndirAddr:0000    Implied
0C1F   00   F4   C5    BRK    A:66    X:47    Y:01    P:EB    SP:F9       BaseAddr:0000    IndirAddr:0000    Implied
C5F4   FB   20   0C    RTI    A:66    X:47    Y:01    P:EB    SP:FC       BaseAddr:0000    IndirAddr:0000    Implied
0C20   00   F4   C5    BRK    A:66    X:47    Y:01    P:EB    SP:F9       BaseAddr:0000    IndirAddr:0000    Implied
C5F4   FB   21   0C    RTI    A:66    X:47    Y:01    P:EB    SP:FC       BaseAddr:0000    IndirAddr:0000    Implied
0C21   00   F4   C5    BRK    A:66    X:47    Y:01    P:EB    SP:F9       BaseAddr:0000    IndirAddr:0000    Implied
C5F4   FB   22   0C    RTI    A:66    X:47    Y:01    P:EB    SP:FC       BaseAddr:0000    IndirAddr:0000    Implied
0C22   00   F4   C5    BRK    A:66    X:47    Y:01    P:EB    SP:F9       BaseAddr:0000    IndirAddr:0000    Implied
C5F4   FB   23   0C    RTI    A:66    X:47    Y:01    P:EB    SP:FC       BaseAddr:0000    IndirAddr:0000    Implied
0C23   00   F4   C5    BRK    A:66    X:47    Y:01    P:EB    SP:F9       BaseAddr:0000    IndirAddr:0000    Implied
C5F4   FB   24   0C    RTI    A:66    X:47    Y:01    P:EB    SP:FC       BaseAddr:0000    IndirAddr:0000    Implied
0C24   00   F4   C5    BRK    A:66    X:47    Y:01    P:EB    SP:F9       BaseAddr:0000    IndirAddr:0000    Implied
C5F4   FB   25   0C    RTI    A:66    X:47    Y:01    P:EB    SP:FC       BaseAddr:0000    IndirAddr:0000    Implied
0C25   00   F4   C5    BRK    A:66    X:47    Y:01    P:EB    SP:F9       BaseAddr:0000    IndirAddr:0000    Implied
C5F4   FB   26   0C    RTI    A:66    X:47    Y:01    P:EB    SP:FC       BaseAddr:0000    IndirAddr:0000    Implied
0C26   00   F4   C5    BRK    A:66    X:47    Y:01    P:EB    SP:F9       BaseAddr:0000    IndirAddr:0000    Implied
C5F4   FB   27   0C    RTI    A:66    X:47    Y:01    P:EB    SP:FC       BaseAddr:0000    IndirAddr:0000    Implied
0C27   00   F4   C5    BRK    A:66    X:47    Y:01    P:EB    SP:F9       BaseAddr:0000    IndirAddr:0000    Implied
C5F4   FB   28   0C    RTI    A:66    X:47    Y:01    P:EB    SP:FC       BaseAddr:0000    IndirAddr:0000    Implied
0C28   00   F4   C5    BRK    A:66    X:47    Y:01    P:EB    SP:F9       BaseAddr:0000    IndirAddr:0000    Implied
C5F4   FB   29   0C    RTI    A:66    X:47    Y:01    P:EB    SP:FC       BaseAddr:0000    IndirAddr:0000    Implied
0C29   00   F4   C5    BRK    A:66    X:47    Y:01    P:EB    SP:F9       BaseAddr:0000    IndirAddr:0000    Implied
C5F4   FB   2A   0C    RTI    A:66    X:47    Y:01    P:EB    SP:FC       BaseAddr:0000    IndirAddr:0000    Implied
0C2A   00   F4   C5    BRK    A:66    X:47    Y:01    P:EB    SP:F9       BaseAddr:0000    IndirAddr:0000    Implied
C5F4   FB   2B   0C    RTI    A:66    X:47    Y:01    P:EB    SP:FC       BaseAddr:0000    IndirAddr:0000    Implied
0C2B   00   F4   C5    BRK    A:66    X:47    Y:01    P:EB    SP:F9       BaseAddr:0000    IndirAddr:0000    Implied
C5F4   FB   2C   0C    RTI    A:66    X:47    Y:01    P:EB    SP:FC       BaseAddr:0000    IndirAddr:0000    Implied
0C2C   00   F4   C5    BRK    A:66    X:47    Y:01    P:EB    SP:F9       BaseAddr:0000    IndirAddr:0000    Implied
C5F4   FB   2D   0C    RTI    A:66    X:47    Y:01    P:EB    SP:FC       BaseAddr:0000    IndirAddr:0000    Implied
0C2D   00   F4   C5    BRK    A:66    X:47    Y:01    P:EB    SP:F9       BaseAddr:0000    IndirAddr:0000    Implied
C5F4   FB   2E   0C    RTI    A:66    X:47    Y:01    P:EB    SP:FC       BaseAddr:0000    IndirAddr:0000    Implied
0C2E   00   F4   C5    BRK    A:66    X:47    Y:01    P:EB    SP:F9       BaseAddr:0000    IndirAddr:0000    Implied
C5F4   FB   2F   0C    RTI    A:66    X:47    Y:01    P:EB    SP:FC       BaseAddr:0000    IndirAddr:0000    Implied
0C2F   00   F4   C5    BRK    A:66    X:47    Y:01    P:EB    SP:F9       BaseAddr:0000    IndirAddr:0000    Implied
C5F4   FB   30   0C    RTI    A:66    X:47    Y:01    P:EB    SP:FC       BaseAddr:0000    IndirAddr:0000    Implied
0C30   00   F4   C5    BRK    A:66    X:47    Y:01    P:EB    SP:F9       BaseAddr:0000    IndirAddr:0000    Implied
C5F4   FB   31   0C    RTI    A:66    X:47    Y:01    P:EB    SP:FC       BaseAddr:0000    IndirAddr:0000    Implied
0C31   00   F4   C5    BRK    A:66    X:47    Y:01    P:EB    SP:F9       BaseAddr:0000    IndirAddr:0000    Implied
C5F4   FB   32   0C    RTI    A:66    X:47    Y:01    P:EB    SP:FC       BaseAddr:0000    IndirAddr:0000    Implied
0C32   00   F4   C5    BRK    A:66    X:47    Y:01    P:EB    SP:F9       BaseAddr:0000    IndirAddr:0000    Implied
C5F4   FB   33   0C    RTI    A:66    X:47    Y:01    P:EB    SP:FC       BaseAddr:0000    IndirAddr:0000    Implied
0C33   00   F4   C5    BRK    A:66    X:47    Y:01    P:EB    SP:F9       BaseAddr:0000    IndirAddr:0000    Implied
C5F4   FB   34   0C    RTI    A:66    X:47    Y:01    P:EB    SP:FC       BaseAddr:0000    IndirAddr:0000    Implied
0C34   00   F4   C5    BRK    A:66    X:47    Y:01    P:EB    SP:F9       BaseAddr:0000    IndirAddr:0000    Implied
C5F4   FB   35   0C    RTI    A:66    X:47    Y:01    P:EB    SP:FC       BaseAddr:0000    IndirAddr:0000    Implied
0C35   00   F4   C5    BRK    A:66    X:47    Y:01    P:EB    SP:F9       BaseAddr:0000    IndirAddr:0000    Implied
C5F4   FB   36   0C    RTI    A:66    X:47    Y:01    P:EB    SP:FC       BaseAddr:0000    IndirAddr:0000    Implied
0C36   00   F4   C5    BRK    A:66    X:47    Y:01    P:EB    SP:F9       BaseAddr:0000    IndirAddr:0000    Implied
C5F4   FB   37   0C    RTI    A:66    X:47    Y:01    P:EB    SP:FC       BaseAddr:0000    IndirAddr:0000    Implied
0C37   00   F4   C5    BRK    A:66    X:47    Y:01    P:EB    SP:F9       BaseAddr:0000    IndirAddr:0000    Implied
C5F4   FB   38   0C    RTI    A:66    X:47    Y:01    P:EB    SP:FC       BaseAddr:0000    IndirAddr:0000    Implied
0C38   00   F4   C5    BRK    A:66    X:47    Y:01    P:EB    SP:F9       BaseAddr:0000    IndirAddr:0000    Implied
C5F4   FB   39   0C    RTI    A:66    X:47    Y:01    P:EB    SP:FC       BaseAddr:0000    IndirAddr:0000    Implied
0C39   00   F4   C5    BRK    A:66    X:47    Y:01    P:EB    SP:F9       BaseAddr:0000    IndirAddr:0000    Implied
C5F4   FB   3A   0C    RTI    A:66    X:47    Y:01    P:EB    SP:FC       BaseAddr:0000    IndirAddr:0000    Implied
0C3A   00   F4   C5    BRK    A:66    X:47    Y:01    P:EB    SP:F9       BaseAddr:0000    IndirAddr:0000    Implied
C5F4   FB   3B   0C    RTI    A:66    X:47    Y:01    P:EB    SP:FC       BaseAddr:0000    IndirAddr:0000    Implied
0C3B   00   F4   C5    BRK    A:66    X:47    Y:01    P:EB    SP:F9       BaseAddr:0000    IndirAddr:0000    Implied
C5F4   FB   3C   0C    RTI    A:66    X:47    Y:01    P:EB    SP:FC       BaseAddr:0000    IndirAddr:0000    Implied
0C3C   00   F4   C5    BRK    A:66    X:47    Y:01    P:EB    SP:F9       BaseAddr:0000    IndirAddr:0000    Implied
C5F4   FB   3D   0C    RTI    A:66    X:47    Y:01    P:EB    SP:FC       BaseAddr:0000    IndirAddr:0000    Implied
0C3D   00   F4   C5    BRK    A:66    X:47    Y:01    P:EB    SP:F9       BaseAddr:0000    IndirAddr:0000    Implied
C5F4   FB   3E   0C    RTI    A:66    X:47    Y:01    P:EB    SP:FC       BaseAddr:0000    IndirAddr:0000    Implied
0C3E   00   F4   C5    BRK    A:66    X:47    Y:01    P:EB    SP:F9       BaseAddr:0000    IndirAddr:0000    Implied
C5F4   FB   3F   0C    RTI    A:66    X:47    Y:01    P:EB    SP:FC       BaseAddr:0000    IndirAddr:0000    Implied
0C3F   00   F4   C5    BRK    A:66    X:47    Y:01    P:EB    SP:F9       BaseAddr:0000    IndirAddr:0000    Implied
C5F4   FB   40   0C    RTI    A:66    X:47    Y:01    P:EB    SP:FC       BaseAddr:0000    IndirAddr:0000    Implied
0C40   00   F4   C5    BRK    A:66    X:47    Y:01    P:EB    SP:F9       BaseAddr:0000    IndirAddr:0000    Implied
C5F4   FB   41   0C    RTI    A:66    X:47    Y:01    P:EB    SP:FC       BaseAddr:0000    IndirAddr:0000    Implied
0C41   00   F4   C5    BRK    A:66    X:47    Y:01    P:EB    SP:F9       BaseAddr:0000    IndirAddr:0000    Implied
C5F4   FB   42   0C    RTI    A:66    X:47    Y:01    P:EB    SP:FC       BaseAddr:0000    IndirAddr:0000    Implied
0C42   00   F4   C5    BRK    A:66    X:47    Y:01    P:EB    SP:F9       BaseAddr:0000    IndirAddr:0000    Implied
C5F4   FB   43   0C    RTI    A:66    X:47    Y:01    P:EB    SP:FC       BaseAddr:0000    IndirAddr:0000    Implied
0C43   00   F4   C5    BRK    A:66    X:47    Y:01    P:EB    SP:F9       BaseAddr:0000    IndirAddr:0000    Implied
C5F4   FB   44   0C    RTI    A:66    X:47    Y:01    P:EB    SP:FC       BaseAddr:0000    IndirAddr:0000    Implied
0C44   00   F4   C5    BRK    A:66    X:47    Y:01    P:EB    SP:F9       BaseAddr:0000    IndirAddr:0000    Implied
C5F4   FB   45   0C    RTI    A:66    X:47    Y:01    P:EB    SP:FC       BaseAddr:0000    IndirAddr:0000    Implied
0C45   00   F4   C5    BRK    A:66    X:47    Y:01    P:EB    SP:F9       BaseAddr:0000    IndirAddr:0000    Implied
C5F4   FB   46   0C    RTI    A:66    X:47    Y:01    P:EB    SP:FC       BaseAddr:0000    IndirAddr:0000    Implied
0C46   00   F4   C5    BRK    A:66    X:47    Y:01    P:EB    SP:F9       BaseAddr:0000    IndirAddr:0000    Implied
C5F4   FB   47   0C    RTI    A:66    X:47    Y:01    P:EB    SP:FC       BaseAddr:0000    IndirAddr:0000    Implied
0C47   00   F4   C5    BRK    A:66    X:47    Y:01    P:EB    SP:F9       BaseAddr:0000    IndirAddr:0000    Implied
C5F4   FB   48   0C    RTI    A:66    X:47    Y:01    P:EB    SP:FC       BaseAddr:0000    IndirAddr:0000    Implied
0C48   00   F4   C5    BRK    A:66    X:47    Y:01    P:EB    SP:F9       BaseAddr:0000    IndirAddr:0000    Implied
C5F4   FB   49   0C    RTI    A:66    X:47    Y:01    P:EB    SP:FC       BaseAddr:0000    IndirAddr:0000    Implied
0C49   00   F4   C5    BRK    A:66    X:47    Y:01    P:EB    SP:F9       BaseAddr:0000    IndirAddr:0000    Implied
C5F4   FB   4A   0C    RTI    A:66    X:47    Y:01    P:EB    SP:FC       BaseAddr:0000    IndirAddr:0000    Implied
0C4A   00   F4   C5    BRK    A:66    X:47    Y:01    P:EB    SP:F9       BaseAddr:0000    IndirAddr:0000    Implied
C5F4   FB   4B   0C    RTI    A:66    X:47    Y:01    P:EB    SP:FC       BaseAddr:0000    IndirAddr:0000    Implied
0C4B   00   F4   C5    BRK    A:66    X:47    Y:01    P:EB    SP:F9       BaseAddr:0000    IndirAddr:0000    Implied
C5F4   FB   4C   0C    RTI    A:66    X:47    Y:01    P:EB    SP:FC       BaseAddr:0000    IndirAddr:0000    Implied
0C4C   00   F4   C5    BRK    A:66    X:47    Y:01    P:EB    SP:F9       BaseAddr:0000    IndirAddr:0000    Implied
C5F4   FB   4D   0C    RTI    A:66    X:47    Y:01    P:EB    SP:FC       BaseAddr:0000    IndirAddr:0000    Implied
0C4D   00   F4   C5    BRK    A:66    X:47    Y:01    P:EB    SP:F9       BaseAddr:0000    IndirAddr:0000    Implied
C5F4   FB   4E   0C    RTI    A:66    X:47    Y:01    P:EB    SP:FC       BaseAddr:0000    IndirAddr:0000    Implied
0C4E   00   F4   C5    BRK    A:66    X:47    Y:01    P:EB    SP:F9       BaseAddr:0000    IndirAddr:0000    Implied
C5F4   FB   4F   0C    RTI    A:66    X:47    Y:01    P:EB    SP:FC       BaseAddr:0000    IndirAddr:0000    Implied
0C4F   00   F4   C5    BRK    A:66    X:47    Y:01    P:EB    SP:F9       BaseAddr:0000    IndirAddr:0000    Implied
C5F4   FB   50   0C    RTI    A:66    X:47    Y:01    P:EB    SP:FC       BaseAddr:0000    IndirAddr:0000    Implied
0C50   00   F4   C5    BRK    A:66    X:47    Y:01    P:EB    SP:F9       BaseAddr:0000    IndirAddr:0000    Implied
C5F4   FB   51   0C    RTI    A:66    X:47    Y:01    P:EB    SP:FC       BaseAddr:0000    IndirAddr:0000    Implied
0C51   00   F4   C5    BRK    A:66    X:47    Y:01    P:EB    SP:F9       BaseAddr:0000    IndirAddr:0000    Implied
C5F4   FB   52   0C    RTI    A:66    X:47    Y:01    P:EB    SP:FC       BaseAddr:0000    IndirAddr:0000    Implied
0C52   00   F4   C5    BRK    A:66    X:47    Y:01    P:EB    SP:F9       BaseAddr:0000    IndirAddr:0000    Implied
C5F4   FB   53   0C    RTI    A:66    X:47    Y:01    P:EB    SP:FC       BaseAddr:0000    IndirAddr:0000    Implied
0C53   00   F4   C5    BRK    A:66    X:47    Y:01    P:EB    SP:F9       BaseAddr:0000    IndirAddr:0000    Implied
C5F4   FB   54   0C    RTI    A:66    X:47    Y:01    P:EB    SP:FC       BaseAddr:0000    IndirAddr:0000    Implied
0C54   00   F4   C5    BRK    A:66    X:47    Y:01    P:EB    SP:F9       BaseAddr:0000    IndirAddr:0000    Implied
C5F4   FB   55   0C    RTI    A:66    X:47    Y:01    P:EB    SP:FC       BaseAddr:0000    IndirAddr:0000    Implied
0C55   00   F4   C5    BRK    A:66    X:47    Y:01    P:EB    SP:F9       BaseAddr:0000    IndirAddr:0000    Implied
C5F4   FB   56   0C    RTI    A:66    X:47    Y:01    P:EB    SP:FC       BaseAddr:0000    IndirAddr:0000    Implied
0C56   00   F4   C5    BRK    A:66    X:47    Y:01    P:EB    SP:F9       BaseAddr:0000    IndirAddr:0000    Implied
C5F4   FB   57   0C    RTI    A:66    X:47    Y:01    P:EB    SP:FC       BaseAddr:0000    IndirAddr:0000    Implied
0C57   00   F4   C5    BRK    A:66    X:47    Y:01    P:EB    SP:F9       BaseAddr:0000    IndirAddr:0000    Implied
C5F4   FB   58   0C    RTI    A:66    X:47    Y:01    P:EB    SP:FC       BaseAddr:0000    IndirAddr:0000    Implied
0C58   00   F4   C5    BRK    A:66    X:47    Y:01    P:EB    SP:F9       BaseAddr:0000    IndirAddr:0000    Implied
C5F4   FB   59   0C    RTI    A:66    X:47    Y:01    P:EB    SP:FC       BaseAddr:0000    IndirAddr:0000    Implied
0C59   00   F4   C5    BRK    A:66    X:47    Y:01    P:EB    SP:F9       BaseAddr:0000    IndirAddr:0000    Implied
C5F4   FB   5A   0C    RTI    A:66    X:47    Y:01    P:EB    SP:FC       BaseAddr:0000    IndirAddr:0000    Implied
0C5A   00   F4   C5    BRK    A:66    X:47    Y:01    P:EB    SP:F9       BaseAddr:0000    IndirAddr:0000    Implied
C5F4   FB   5B   0C    RTI    A:66    X:47    Y:01    P:EB    SP:FC       BaseAddr:0000    IndirAddr:0000    Implied
0C5B   00   F4   C5    BRK    A:66    X:47    Y:01    P:EB    SP:F9       BaseAddr:0000    IndirAddr:0000    Implied
C5F4   FB   5C   0C    RTI    A:66    X:47    Y:01    P:EB    SP:FC       BaseAddr:0000    IndirAddr:0000    Implied
0C5C   00   F4   C5    BRK    A:66    X:47    Y:01    P:EB    SP:F9       BaseAddr:0000    IndirAddr:0000    Implied
C5F4   FB   5D   0C    RTI    A:66    X:47    Y:01    P:EB    SP:FC       BaseAddr:0000    IndirAddr:0000    Implied
0C5D   00   F4   C5    BRK    A:66    X:47    Y:01    P:EB    SP:F9       BaseAddr:0000    IndirAddr:0000    Implied
C5F4   FB   5E   0C    RTI    A:66    X:47    Y:01    P:EB    SP:FC       BaseAddr:0000    IndirAddr:0000    Implied
0C5E   00   F4   C5    BRK    A:66    X:47    Y:01    P:EB    SP:F9       BaseAddr:0000    IndirAddr:0000    Implied
C5F4   FB   5F   0C    RTI    A:66    X:47    Y:01    P:EB    SP:FC       BaseAddr:0000    IndirAddr:0000    Implied
0C5F   00   F4   C5    BRK    A:66    X:47    Y:01    P:EB    SP:F9       BaseAddr:0000    IndirAddr:0000    Implied
C5F4   FB   60   0C    RTI    A:66    X:47    Y:01    P:EB    SP:FC       BaseAddr:0000    IndirAddr:0000    Implied
0C60   00   F4   C5    BRK    A:66    X:47    Y:01    P:EB    SP:F9       BaseAddr:0000    IndirAddr:0000    Implied
C5F4   FB   61   0C    RTI    A:66    X:47    Y:01    P:EB    SP:FC       BaseAddr:0000    IndirAddr:0000    Implied
0C61   00   F4   C5    BRK    A:66    X:47    Y:01    P:EB    SP:F9       BaseAddr:0000    IndirAddr:0000    Implied
C5F4   FB   62   0C    RTI    A:66    X:47    Y:01    P:EB    SP:FC       BaseAddr:0000    IndirAddr:0000    Implied
0C62   00   F4   C5    BRK    A:66    X:47    Y:01    P:EB    SP:F9       BaseAddr:0000    IndirAddr:0000    Implied
C5F4   FB   63   0C    RTI    A:66    X:47    Y:01    P:EB    SP:FC       BaseAddr:0000    IndirAddr:0000    Implied
0C63   00   F4   C5    BRK    A:66    X:47    Y:01    P:EB    SP:F9       BaseAddr:0000    IndirAddr:0000    Implied
C5F4   FB   64   0C    RTI    A:66    X:47    Y:01    P:EB    SP:FC       BaseAddr:0000    IndirAddr:0000    Implied
0C64   00   F4   C5    BRK    A:66    X:47    Y:01    P:EB    SP:F9       BaseAddr:0000    IndirAddr:0000    Implied
C5F4   FB   65   0C    RTI    A:66    X:47    Y:01    P:EB    SP:FC       BaseAddr:0000    IndirAddr:0000    Implied
0C65   00   F4   C5    BRK    A:66    X:47    Y:01    P:EB    SP:F9       BaseAddr:0000    IndirAddr:0000    Implied
C5F4   FB   66   0C    RTI    A:66    X:47    Y:01    P:EB    SP:FC       BaseAddr:0000    IndirAddr:0000    Implied
0C66   00   F4   C5    BRK    A:66    X:47    Y:01    P:EB    SP:F9       BaseAddr:0000    IndirAddr:0000    Implied
C5F4   FB   67   0C    RTI    A:66    X:47    Y:01    P:EB    SP:FC       BaseAddr:0000    IndirAddr:0000    Implied
0C67   00   F4   C5    BRK    A:66    X:47    Y:01    P:EB    SP:F9       BaseAddr:0000    IndirAddr:0000    Implied
C5F4   FB   68   0C    RTI    A:66    X:47    Y:01    P:EB    SP:FC       BaseAddr:0000    IndirAddr:0000    Implied
0C68   00   F4   C5    BRK    A:66    X:47    Y:01    P:EB    SP:F9       BaseAddr:0000    IndirAddr:0000    Implied
C5F4   FB   69   0C    RTI    A:66    X:47    Y:01    P:EB    SP:FC       BaseAddr:0000    IndirAddr:0000    Implied
0C69   00   F4   C5    BRK    A:66    X:47    Y:01    P:EB    SP:F9       BaseAddr:0000    IndirAddr:0000    Implied
C5F4   FB   6A   0C    RTI    A:66    X:47    Y:01    P:EB    SP:FC       BaseAddr:0000    IndirAddr:0000    Implied
0C6A   00   F4   C5    BRK    A:66    X:47    Y:01    P:EB    SP:F9       BaseAddr:0000    IndirAddr:0000    Implied
C5F4   FB   6B   0C    RTI    A:66    X:47    Y:01    P:EB    SP:FC       BaseAddr:0000    IndirAddr:0000    Implied
0C6B   00   F4   C5    BRK    A:66    X:47    Y:01    P:EB    SP:F9       BaseAddr:0000    IndirAddr:0000    Implied
C5F4   FB   6C   0C    RTI    A:66    X:47    Y:01    P:EB    SP:FC       BaseAddr:0000    IndirAddr:0000    Implied
0C6C   00   F4   C5    BRK    A:66    X:47    Y:01    P:EB    SP:F9       BaseAddr:0000    IndirAddr:0000    Implied
C5F4   FB   6D   0C    RTI    A:66    X:47    Y:01    P:EB    SP:FC       BaseAddr:0000    IndirAddr:0000    Implied
0C6D   00   F4   C5    BRK    A:66    X:47    Y:01    P:EB    SP:F9       BaseAddr:0000    IndirAddr:0000    Implied
C5F4   FB   6E   0C    RTI    A:66    X:47    Y:01    P:EB    SP:FC       BaseAddr:0000    IndirAddr:0000    Implied
0C6E   00   F4   C5    BRK    A:66    X:47    Y:01    P:EB    SP:F9       BaseAddr:0000    IndirAddr:0000    Implied
C5F4   FB   6F   0C    RTI    A:66    X:47    Y:01    P:EB    SP:FC       BaseAddr:0000    IndirAddr:0000    Implied
0C6F   00   F4   C5    BRK    A:66    X:47    Y:01    P:EB    SP:F9       BaseAddr:0000    IndirAddr:0000    Implied
C5F4   FB   70   0C    RTI    A:66    X:47    Y:01    P:EB    SP:FC       BaseAddr:0000    IndirAddr:0000    Implied
0C70   00   F4   C5    BRK    A:66    X:47    Y:01    P:EB    SP:F9       BaseAddr:0000    IndirAddr:0000    Implied
C5F4   FB   71   0C    RTI    A:66    X:47    Y:01    P:EB    SP:FC       BaseAddr:0000    IndirAddr:0000    Implied
0C71   00   F4   C5    BRK    A:66    X:47    Y:01    P:EB    SP:F9       BaseAddr:0000    IndirAddr:0000    Implied
C5F4   FB   72   0C    RTI    A:66    X:47    Y:01    P:EB    SP:FC       BaseAddr:0000    IndirAddr:0000    Implied
0C72   00   F4   C5    BRK    A:66    X:47    Y:01    P:EB    SP:F9       BaseAddr:0000    IndirAddr:0000    Implied
C5F4   FB   73   0C    RTI    A:66    X:47    Y:01    P:EB    SP:FC       BaseAddr:0000    IndirAddr:0000    Implied
0C73   00   F4   C5    BRK    A:66    X:47    Y:01    P:EB    SP:F9       BaseAddr:0000    IndirAddr:0000    Implied
C5F4   FB   74   0C    RTI    A:66    X:47    Y:01    P:EB    SP:FC       BaseAddr:0000    IndirAddr:0000    Implied
0C74   00   F4   C5    BRK    A:66    X:47    Y:01    P:EB    SP:F9       BaseAddr:0000    IndirAddr:0000    Implied
C5F4   FB   75   0C    RTI    A:66    X:47    Y:01    P:EB    SP:FC       BaseAddr:0000    IndirAddr:0000    Implied
0C75   00   F4   C5    BRK    A:66    X:47    Y:01    P:EB    SP:F9       BaseAddr:0000    IndirAddr:0000    Implied
C5F4   FB   76   0C    RTI    A:66    X:47    Y:01    P:EB    SP:FC       BaseAddr:0000    IndirAddr:0000    Implied
0C76   00   F4   C5    BRK    A:66    X:47    Y:01    P:EB    SP:F9       BaseAddr:0000    IndirAddr:0000    Implied
C5F4   FB   77   0C    RTI    A:66    X:47    Y:01    P:EB    SP:FC       BaseAddr:0000    IndirAddr:0000    Implied
0C77   00   F4   C5    BRK    A:66    X:47    Y:01    P:EB    SP:F9       BaseAddr:0000    IndirAddr:0000    Implied
C5F4   FB   78   0C    RTI    A:66    X:47    Y:01    P:EB    SP:FC       BaseAddr:0000    IndirAddr:0000    Implied
0C78   00   F4   C5    BRK    A:66    X:47    Y:01    P:EB    SP:F9       BaseAddr:0000    IndirAddr:0000    Implied
C5F4   FB   79   0C    RTI    A:66    X:47    Y:01    P:EB    SP:FC       BaseAddr:0000    IndirAddr:0000    Implied
0C79   00   F4   C5    BRK    A:66    X:47    Y:01    P:EB    SP:F9       BaseAddr:0000    IndirAddr:0000    Implied
C5F4   FB   7A   0C    RTI    A:66    X:47    Y:01    P:EB    SP:FC       BaseAddr:0000    IndirAddr:0000    Implied
0C7A   00   F4   C5    BRK    A:66    X:47    Y:01    P:EB    SP:F9       BaseAddr:0000    IndirAddr:0000    Implied
C5F4   FB   7B   0C    RTI    A:66    X:47    Y:01    P:EB    SP:FC       BaseAddr:0000    IndirAddr:0000    Implied
0C7B   00   F4   C5    BRK    A:66    X:47    Y:01    P:EB    SP:F9       BaseAddr:0000    IndirAddr:0000    Implied
C5F4   FB   7C   0C    RTI    A:66    X:47    Y:01    P:EB    SP:FC       BaseAddr:0000    IndirAddr:0000    Implied
0C7C   00   F4   C5    BRK    A:66    X:47    Y:01    P:EB    SP:F9       BaseAddr:0000    IndirAddr:0000    Implied
C5F4   FB   7D   0C    RTI    A:66    X:47    Y:01    P:EB    SP:FC       BaseAddr:0000    IndirAddr:0000    Implied
0C7D   00   F4   C5    BRK    A:66    X:47    Y:01    P:EB    SP:F9       BaseAddr:0000    IndirAddr:0000    Implied
C5F4   FB   7E   0C    RTI    A:66    X:47    Y:01    P:EB    SP:FC       BaseAddr:0000    IndirAddr:0000    Implied
0C7E   00   F4   C5    BRK    A:66    X:47    Y:01    P:EB    SP:F9       BaseAddr:0000    IndirAddr:0000    Implied
C5F4   FB   7F   0C    RTI    A:66    X:47    Y:01    P:EB    SP:FC       BaseAddr:0000    IndirAddr:0000    Implied
0C7F   00   F4   C5    BRK    A:66    X:47    Y:01    P:EB    SP:F9       BaseAddr:0000    IndirAddr:0000    Implied
C5F4   FB   80   0C    RTI    A:66    X:47    Y:01    P:EB    SP:FC       BaseAddr:0000    IndirAddr:0000    Implied
0C80   00   F4   C5    BRK    A:66    X:47    Y:01    P:EB    SP:F9       BaseAddr:0000    IndirAddr:0000    Implied
C5F4   FB   81   0C    RTI    A:66    X:47    Y:01    P:EB    SP:FC       BaseAddr:0000    IndirAddr:0000    Implied
0C81   00   F4   C5    BRK    A:66    X:47    Y:01    P:EB    SP:F9       BaseAddr:0000    IndirAddr:0000    Implied
C5F4   FB   82   0C    RTI    A:66    X:47    Y:01    P:EB    SP:FC       BaseAddr:0000    IndirAddr:0000    Implied
0C82   00   F4   C5    BRK    A:66    X:47    Y:01    P:EB    SP:F9       BaseAddr:0000    IndirAddr:0000    Implied
C5F4   FB   83   0C    RTI    A:66    X:47    Y:01    P:EB    SP:FC       BaseAddr:0000    IndirAddr:0000    Implied
0C83   00   F4   C5    BRK    A:66    X:47    Y:01    P:EB    SP:F9       BaseAddr:0000    IndirAddr:0000    Implied
C5F4   FB   84   0C    RTI    A:66    X:47    Y:01    P:EB    SP:FC       BaseAddr:0000    IndirAddr:0000    Implied
0C84   00   F4   C5    BRK    A:66    X:47    Y:01    P:EB    SP:F9       BaseAddr:0000    IndirAddr:0000    Implied
C5F4   FB   85   0C    RTI    A:66    X:47    Y:01    P:EB    SP:FC       BaseAddr:0000    IndirAddr:0000    Implied
0C85   00   F4   C5    BRK    A:66    X:47    Y:01    P:EB    SP:F9       BaseAddr:0000    IndirAddr:0000    Implied
C5F4   FB   86   0C    RTI    A:66    X:47    Y:01    P:EB    SP:FC       BaseAddr:0000    IndirAddr:0000    Implied
0C86   00   F4   C5    BRK    A:66    X:47    Y:01    P:EB    SP:F9       BaseAddr:0000    IndirAddr:0000    Implied
C5F4   FB   87   0C    RTI    A:66    X:47    Y:01    P:EB    SP:FC       BaseAddr:0000    IndirAddr:0000    Implied
0C87   00   F4   C5    BRK    A:66    X:47    Y:01    P:EB    SP:F9       BaseAddr:0000    IndirAddr:0000    Implied
C5F4   FB   88   0C    RTI    A:66    X:47    Y:01    P:EB    SP:FC       BaseAddr:0000    IndirAddr:0000    Implied
0C88   00   F4   C5    BRK    A:66    X:47    Y:01    P:EB    SP:F9       BaseAddr:0000    IndirAddr:0000    Implied
C5F4   FB   89   0C    RTI    A:66    X:47    Y:01    P:EB    SP:FC       BaseAddr:0000    IndirAddr:0000    Implied
0C89   00   F4   C5    BRK    A:66    X:47    Y:01    P:EB    SP:F9       BaseAddr:0000    IndirAddr:0000    Implied
C5F4   FB   8A   0C    RTI    A:66    X:47    Y:01    P:EB    SP:FC       BaseAddr:0000    IndirAddr:0000    Implied
0C8A   00   F4   C5    BRK    A:66    X:47    Y:01    P:EB    SP:F9       BaseAddr:0000    IndirAddr:0000    Implied
C5F4   FB   8B   0C    RTI    A:66    X:47    Y:01    P:EB    SP:FC       BaseAddr:0000    IndirAddr:0000    Implied
0C8B   00   F4   C5    BRK    A:66    X:47    Y:01    P:EB    SP:F9       BaseAddr:0000    IndirAddr:0000    Implied
C5F4   FB   8C   0C    RTI    A:66    X:47    Y:01    P:EB    SP:FC       BaseAddr:0000    IndirAddr:0000    Implied
0C8C   00   F4   C5    BRK    A:66    X:47    Y:01    P:EB    SP:F9       BaseAddr:0000    IndirAddr:0000    Implied
C5F4   FB   8D   0C    RTI    A:66    X:47    Y:01    P:EB    SP:FC       BaseAddr:0000    IndirAddr:0000    Implied
0C8D   00   F4   C5    BRK    A:66    X:47    Y:01    P:EB    SP:F9       BaseAddr:0000    IndirAddr:0000    Implied
C5F4   FB   8E   0C    RTI    A:66    X:47    Y:01    P:EB    SP:FC       BaseAddr:0000    IndirAddr:0000    Implied
0C8E   00   F4   C5    BRK    A:66    X:47    Y:01    P:EB    SP:F9       BaseAddr:0000    IndirAddr:0000    Implied
C5F4   FB   8F   0C    RTI    A:66    X:47    Y:01    P:EB    SP:FC       BaseAddr:0000    IndirAddr:0000    Implied
0C8F   00   F4   C5    BRK    A:66    X:47    Y:01    P:EB    SP:F9       BaseAddr:0000    IndirAddr:0000    Implied
C5F4   FB   90   0C    RTI    A:66    X:47    Y:01    P:EB    SP:FC       BaseAddr:0000    IndirAddr:0000    Implied
0C90   00   F4   C5    BRK    A:66    X:47    Y:01    P:EB    SP:F9       BaseAddr:0000    IndirAddr:0000    Implied
C5F4   FB   91   0C    RTI    A:66    X:47    Y:01    P:EB    SP:FC       BaseAddr:0000    IndirAddr:0000    Implied
0C91   00   F4   C5    BRK    A:66    X:47    Y:01    P:EB    SP:F9       BaseAddr:0000    IndirAddr:0000    Implied
C5F4   FB   92   0C    RTI    A:66    X:47    Y:01    P:EB    SP:FC       BaseAddr:0000    IndirAddr:0000    Implied
0C92   00   F4   C5    BRK    A:66    X:47    Y:01    P:EB    SP:F9       BaseAddr:0000    IndirAddr:0000    Implied
C5F4   FB   93   0C    RTI    A:66    X:47    Y:01    P:EB    SP:FC       BaseAddr:0000    IndirAddr:0000    Implied
0C93   00   F4   C5    BRK    A:66    X:47    Y:01    P:EB    SP:F9       BaseAddr:0000    IndirAddr:0000    Implied
C5F4   FB   94   0C    RTI    A:66    X:47    Y:01    P:EB    SP:FC       BaseAddr:0000    IndirAddr:0000    Implied
0C94   00   F4   C5    BRK    A:66    X:47    Y:01    P:EB    SP:F9       BaseAddr:0000    IndirAddr:0000    Implied
C5F4   FB   95   0C    RTI    A:66    X:47    Y:01    P:EB    SP:FC       BaseAddr:0000    IndirAddr:0000    Implied
0C95   00   F4   C5    BRK    A:66    X:47    Y:01    P:EB    SP:F9       BaseAddr:0000    IndirAddr:0000    Implied
C5F4   FB   96   0C    RTI    A:66    X:47    Y:01    P:EB    SP:FC       BaseAddr:0000    IndirAddr:0000    Implied
0C96   00   F4   C5    BRK    A:66    X:47    Y:01    P:EB    SP:F9       BaseAddr:0000    IndirAddr:0000    Implied
C5F4   FB   97   0C    RTI    A:66    X:47    Y:01    P:EB    SP:FC       BaseAddr:0000    IndirAddr:0000    Implied
0C97   00   F4   C5    BRK    A:66    X:47    Y:01    P:EB    SP:F9       BaseAddr:0000    IndirAddr:0000    Implied
C5F4   FB   98   0C    RTI    A:66    X:47    Y:01    P:EB    SP:FC       BaseAddr:0000    IndirAddr:0000    Implied
0C98   00   F4   C5    BRK    A:66    X:47    Y:01    P:EB    SP:F9       BaseAddr:0000    IndirAddr:0000    Implied
C5F4   FB   99   0C    RTI    A:66    X:47    Y:01    P:EB    SP:FC       BaseAddr:0000    IndirAddr:0000    Implied
0C99   00   F4   C5    BRK    A:66    X:47    Y:01    P:EB    SP:F9       BaseAddr:0000    IndirAddr:0000    Implied
C5F4   FB   9A   0C    RTI    A:66    X:47    Y:01    P:EB    SP:FC       BaseAddr:0000    IndirAddr:0000    Implied
0C9A   00   F4   C5    BRK    A:66    X:47    Y:01    P:EB    SP:F9       BaseAddr:0000    IndirAddr:0000    Implied
C5F4   FB   9B   0C    RTI    A:66    X:47    Y:01    P:EB    SP:FC       BaseAddr:0000    IndirAddr:0000    Implied
0C9B   00   F4   C5    BRK    A:66    X:47    Y:01    P:EB    SP:F9       BaseAddr:0000    IndirAddr:0000    Implied
C5F4   FB   9C   0C    RTI    A:66    X:47    Y:01    P:EB    SP:FC       BaseAddr:0000    IndirAddr:0000    Implied
0C9C   00   F4   C5    BRK    A:66    X:47    Y:01    P:EB    SP:F9       BaseAddr:0000    IndirAddr:0000    Implied
C5F4   FB   9D   0C    RTI    A:66    X:47    Y:01    P:EB    SP:FC       BaseAddr:0000    IndirAddr:0000    Implied
0C9D   00   F4   C5    BRK    A:66    X:47    Y:01    P:EB    SP:F9       BaseAddr:0000    IndirAddr:0000    Implied
C5F4   FB   9E   0C    RTI    A:66    X:47    Y:01    P:EB    SP:FC       BaseAddr:0000    IndirAddr:0000    Implied
0C9E   00   F4   C5    BRK    A:66    X:47    Y:01    P:EB    SP:F9       BaseAddr:0000    IndirAddr:0000    Implied
C5F4   FB   9F   0C    RTI    A:66    X:47    Y:01    P:EB    SP:FC       BaseAddr:0000    IndirAddr:0000    Implied
0C9F   00   F4   C5    BRK    A:66    X:47    Y:01    P:EB    SP:F9       BaseAddr:0000    IndirAddr:0000    Implied
C5F4   FB   A0   0C    RTI    A:66    X:47    Y:01    P:EB    SP:FC       BaseAddr:0000    IndirAddr:0000    Implied
0CA0   00   F4   C5    BRK    A:66    X:47    Y:01    P:EB    SP:F9       BaseAddr:0000    IndirAddr:0000    Implied
C5F4   FB   A1   0C    RTI    A:66    X:47    Y:01    P:EB    SP:FC       BaseAddr:0000    IndirAddr:0000    Implied
0CA1   00   F4   C5    BRK    A:66    X:47    Y:01    P:EB    SP:F9       BaseAddr:0000    IndirAddr:0000    Implied
C5F4   FB   A2   0C    RTI    A:66    X:47    Y:01    P:EB    SP:FC       BaseAddr:0000    IndirAddr:0000    Implied
0CA2   00   F4   C5    BRK    A:66    X:47    Y:01    P:EB    SP:F9       BaseAddr:0000    IndirAddr:0000    Implied
C5F4   FB   A3   0C    RTI    A:66    X:47    Y:01    P:EB    SP:FC       BaseAddr:0000    IndirAddr:0000    Implied
0CA3   00   F4   C5    BRK    A:66    X:47    Y:01    P:EB    SP:F9       BaseAddr:0000    IndirAddr:0000    Implied
C5F4   FB   A4   0C    RTI    A:66    X:47    Y:01    P:EB    SP:FC       BaseAddr:0000    IndirAddr:0000    Implied
0CA4   00   F4   C5    BRK    A:66    X:47    Y:01    P:EB    SP:F9       BaseAddr:0000    IndirAddr:0000    Implied
C5F4   FB   A5   0C    RTI    A:66    X:47    Y:01    P:EB    SP:FC       BaseAddr:0000    IndirAddr:0000    Implied
0CA5   00   F4   C5    BRK    A:66    X:47    Y:01    P:EB    SP:F9       BaseAddr:0000    IndirAddr:0000    Implied
C5F4   FB   A6   0C    RTI    A:66    X:47    Y:01    P:EB    SP:FC       BaseAddr:0000    IndirAddr:0000    Implied
0CA6   00   F4   C5    BRK    A:66    X:47    Y:01    P:EB    SP:F9       BaseAddr:0000    IndirAddr:0000    Implied
C5F4   FB   A7   0C    RTI    A:66    X:47    Y:01    P:EB    SP:FC       BaseAddr:0000    IndirAddr:0000    Implied
0CA7   00   F4   C5    BRK    A:66    X:47    Y:01    P:EB    SP:F9       BaseAddr:0000    IndirAddr:0000    Implied
C5F4   FB   A8   0C    RTI    A:66    X:47    Y:01    P:EB    SP:FC       BaseAddr:0000    IndirAddr:0000    Implied
0CA8   00   F4   C5    BRK    A:66    X:47    Y:01    P:EB    SP:F9       BaseAddr:0000    IndirAddr:0000    Implied
C5F4   FB   A9   0C    RTI    A:66    X:47    Y:01    P:EB    SP:FC       BaseAddr:0000    IndirAddr:0000    Implied
0CA9   00   F4   C5    BRK    A:66    X:47    Y:01    P:EB    SP:F9       BaseAddr:0000    IndirAddr:0000    Implied
C5F4   FB   AA   0C    RTI    A:66    X:47    Y:01    P:EB    SP:FC       BaseAddr:0000    IndirAddr:0000    Implied
0CAA   00   F4   C5    BRK    A:66    X:47    Y:01    P:EB    SP:F9       BaseAddr:0000    IndirAddr:0000    Implied
C5F4   FB   AB   0C    RTI    A:66    X:47    Y:01    P:EB    SP:FC       BaseAddr:0000    IndirAddr:0000    Implied
0CAB   00   F4   C5    BRK    A:66    X:47    Y:01    P:EB    SP:F9       BaseAddr:0000    IndirAddr:0000    Implied
C5F4   FB   AC   0C    RTI    A:66    X:47    Y:01    P:EB    SP:FC       BaseAddr:0000    IndirAddr:0000    Implied
0CAC   00   F4   C5    BRK    A:66    X:47    Y:01    P:EB    SP:F9       BaseAddr:0000    IndirAddr:0000    Implied
C5F4   FB   AD   0C    RTI    A:66    X:47    Y:01    P:EB    SP:FC       BaseAddr:0000    IndirAddr:0000    Implied
0CAD   00   F4   C5    BRK    A:66    X:47    Y:01    P:EB    SP:F9       BaseAddr:0000    IndirAddr:0000    Implied
C5F4   FB   AE   0C    RTI    A:66    X:47    Y:01    P:EB    SP:FC       BaseAddr:0000    IndirAddr:0000    Implied
0CAE   00   F4   C5    BRK    A:66    X:47    Y:01    P:EB    SP:F9       BaseAddr:0000    IndirAddr:0000    Implied
C5F4   FB   AF   0C    RTI    A:66    X:47    Y:01    P:EB    SP:FC       BaseAddr:0000    IndirAddr:0000    Implied
0CAF   00   F4   C5    BRK    A:66    X:47    Y:01    P:EB    SP:F9       BaseAddr:0000    IndirAddr:0000    Implied
C5F4   FB   B0   0C    RTI    A:66    X:47    Y:01    P:EB    SP:FC       BaseAddr:0000    IndirAddr:0000    Implied
0CB0   00   F4   C5    BRK    A:66    X:47    Y:01    P:EB    SP:F9       BaseAddr:0000    IndirAddr:0000    Implied
C5F4   FB   B1   0C    RTI    A:66    X:47    Y:01    P:EB    SP:FC       BaseAddr:0000    IndirAddr:0000    Implied
0CB1   00   F4   C5    BRK    A:66    X:47    Y:01    P:EB    SP:F9       BaseAddr:0000    IndirAddr:0000    Implied
C5F4   FB   B2   0C    RTI    A:66    X:47    Y:01    P:EB    SP:FC       BaseAddr:0000    IndirAddr:0000    Implied
0CB2   00   F4   C5    BRK    A:66    X:47    Y:01    P:EB    SP:F9       BaseAddr:0000    IndirAddr:0000    Implied
C5F4   FB   B3   0C    RTI    A:66    X:47    Y:01    P:EB    SP:FC       BaseAddr:0000    IndirAddr:0000    Implied
0CB3   00   F4   C5    BRK    A:66    X:47    Y:01    P:EB    SP:F9       BaseAddr:0000    IndirAddr:0000    Implied
C5F4   FB   B4   0C    RTI    A:66    X:47    Y:01    P:EB    SP:FC       BaseAddr:0000    IndirAddr:0000    Implied
0CB4   00   F4   C5    BRK    A:66    X:47    Y:01    P:EB    SP:F9       BaseAddr:0000    IndirAddr:0000    Implied
C5F4   FB   B5   0C    RTI    A:66    X:47    Y:01    P:EB    SP:FC       BaseAddr:0000    IndirAddr:0000    Implied
0CB5   00   F4   C5    BRK    A:66    X:47    Y:01    P:EB    SP:F9       BaseAddr:0000    IndirAddr:0000    Implied
C5F4   FB   B6   0C    RTI    A:66    X:47    Y:01    P:EB    SP:FC       BaseAddr:0000    IndirAddr:0000    Implied
0CB6   00   F4   C5    BRK    A:66    X:47    Y:01    P:EB    SP:F9       BaseAddr:0000    IndirAddr:0000    Implied
C5F4   FB   B7   0C    RTI    A:66    X:47    Y:01    P:EB    SP:FC       BaseAddr:0000    IndirAddr:0000    Implied
0CB7   00   F4   C5    BRK    A:66    X:47    Y:01    P:EB    SP:F9       BaseAddr:0000    IndirAddr:0000    Implied
C5F4   FB   B8   0C    RTI    A:66    X:47    Y:01    P:EB    SP:FC       BaseAddr:0000    IndirAddr:0000    Implied
0CB8   00   F4   C5    BRK    A:66    X:47    Y:01    P:EB    SP:F9       BaseAddr:0000    IndirAddr:0000    Implied
C5F4   FB   B9   0C    RTI    A:66    X:47    Y:01    P:EB    SP:FC       BaseAddr:0000    IndirAddr:0000    Implied
0CB9   00   F4   C5    BRK    A:66    X:47    Y:01    P:EB    SP:F9       BaseAddr:0000    IndirAddr:0000    Implied
C5F4   FB   BA   0C    RTI    A:66    X:47    Y:01    P:EB    SP:FC       BaseAddr:0000    IndirAddr:0000    Implied
0CBA   00   F4   C5    BRK    A:66    X:47    Y:01    P:EB    SP:F9       BaseAddr:0000    IndirAddr:0000    Implied
C5F4   FB   BB   0C    RTI    A:66    X:47    Y:01    P:EB    SP:FC       BaseAddr:0000    IndirAddr:0000    Implied
0CBB   00   F4   C5    BRK    A:66    X:47    Y:01    P:EB    SP:F9       BaseAddr:0000    IndirAddr:0000    Implied
C5F4   FB   BC   0C    RTI    A:66    X:47    Y:01    P:EB    SP:FC       BaseAddr:0000    IndirAddr:0000    Implied
0CBC   00   F4   C5    BRK    A:66    X:47    Y:01    P:EB    SP:F9       BaseAddr:0000    IndirAddr:0000    Implied
C5F4   FB   BD   0C    RTI    A:66    X:47    Y:01    P:EB    SP:FC       BaseAddr:0000    IndirAddr:0000    Implied
0CBD   00   F4   C5    BRK    A:66    X:47    Y:01    P:EB    SP:F9       BaseAddr:0000    IndirAddr:0000    Implied
C5F4   FB   BE   0C    RTI    A:66    X:47    Y:01    P:EB    SP:FC       BaseAddr:0000    IndirAddr:0000    Implied
0CBE   00   F4   C5    BRK    A:66    X:47    Y:01    P:EB    SP:F9       BaseAddr:0000    IndirAddr:0000    Implied
C5F4   FB   BF   0C    RTI    A:66    X:47    Y:01    P:EB    SP:FC       BaseAddr:0000    IndirAddr:0000    Implied
0CBF   00   F4   C5    BRK    A:66    X:47    Y:01    P:EB    SP:F9       BaseAddr:0000    IndirAddr:0000    Implied
C5F4   FB   C0   0C    RTI    A:66    X:47    Y:01    P:EB    SP:FC       BaseAddr:0000    IndirAddr:0000    Implied
0CC0   00   F4   C5    BRK    A:66    X:47    Y:01    P:EB    SP:F9       BaseAddr:0000    IndirAddr:0000    Implied
C5F4   FB   C1   0C    RTI    A:66    X:47    Y:01    P:EB    SP:FC       BaseAddr:0000    IndirAddr:0000    Implied
0CC1   00   F4   C5    BRK    A:66    X:47    Y:01    P:EB    SP:F9       BaseAddr:0000    IndirAddr:0000    Implied
C5F4   FB   C2   0C    RTI    A:66    X:47    Y:01    P:EB    SP:FC       BaseAddr:0000    IndirAddr:0000    Implied
0CC2   00   F4   C5    BRK    A:66    X:47    Y:01    P:EB    SP:F9       BaseAddr:0000    IndirAddr:0000    Implied
C5F4   FB   C3   0C    RTI    A:66    X:47    Y:01    P:EB    SP:FC       BaseAddr:0000    IndirAddr:0000    Implied
0CC3   00   F4   C5    BRK    A:66    X:47    Y:01    P:EB    SP:F9       BaseAddr:0000    IndirAddr:0000    Implied
C5F4   FB   C4   0C    RTI    A:66    X:47    Y:01    P:EB    SP:FC       BaseAddr:0000    IndirAddr:0000    Implied
0CC4   00   F4   C5    BRK    A:66    X:47    Y:01    P:EB    SP:F9       BaseAddr:0000    IndirAddr:0000    Implied
C5F4   FB   C5   0C    RTI    A:66    X:47    Y:01    P:EB    SP:FC       BaseAddr:0000    IndirAddr:0000    Implied
0CC5   00   F4   C5    BRK    A:66    X:47    Y:01    P:EB    SP:F9       BaseAddr:0000    IndirAddr:0000    Implied
C5F4   FB   C6   0C    RTI    A:66    X:47    Y:01    P:EB    SP:FC       BaseAddr:0000    IndirAddr:0000    Implied
0CC6   00   F4   C5    BRK    A:66    X:47    Y:01    P:EB    SP:F9       BaseAddr:0000    IndirAddr:0000    Implied
C5F4   FB   C7   0C    RTI    A:66    X:47    Y:01    P:EB    SP:FC       BaseAddr:0000    IndirAddr:0000    Implied
0CC7   00   F4   C5    BRK    A:66    X:47    Y:01    P:EB    SP:F9       BaseAddr:0000    IndirAddr:0000    Implied
C5F4   FB   C8   0C    RTI    A:66    X:47    Y:01    P:EB    SP:FC       BaseAddr:0000    IndirAddr:0000    Implied
0CC8   00   F4   C5    BRK    A:66    X:47    Y:01    P:EB    SP:F9       BaseAddr:0000    IndirAddr:0000    Implied
C5F4   FB   C9   0C    RTI    A:66    X:47    Y:01    P:EB    SP:FC       BaseAddr:0000    IndirAddr:0000    Implied
0CC9   00   F4   C5    BRK    A:66    X:47    Y:01    P:EB    SP:F9       BaseAddr:0000    IndirAddr:0000    Implied
C5F4   FB   CA   0C    RTI    A:66    X:47    Y:01    P:EB    SP:FC       BaseAddr:0000    IndirAddr:0000    Implied
0CCA   00   F4   C5    BRK    A:66    X:47    Y:01    P:EB    SP:F9       BaseAddr:0000    IndirAddr:0000    Implied
C5F4   FB   CB   0C    RTI    A:66    X:47    Y:01    P:EB    SP:FC       BaseAddr:0000    IndirAddr:0000    Implied
0CCB   00   F4   C5    BRK    A:66    X:47    Y:01    P:EB    SP:F9       BaseAddr:0000    IndirAddr:0000    Implied
C5F4   FB   CC   0C    RTI    A:66    X:47    Y:01    P:EB    SP:FC       BaseAddr:0000    IndirAddr:0000    Implied
0CCC   00   F4   C5    BRK    A:66    X:47    Y:01    P:EB    SP:F9       BaseAddr:0000    IndirAddr:0000    Implied
C5F4   FB   CD   0C    RTI    A:66    X:47    Y:01    P:EB    SP:FC       BaseAddr:0000    IndirAddr:0000    Implied
0CCD   00   F4   C5    BRK    A:66    X:47    Y:01    P:EB    SP:F9       BaseAddr:0000    IndirAddr:0000    Implied
C5F4   FB   CE   0C    RTI    A:66    X:47    Y:01    P:EB    SP:FC       BaseAddr:0000    IndirAddr:0000    Implied
0CCE   00   F4   C5    BRK    A:66    X:47    Y:01    P:EB    SP:F9       BaseAddr:0000    IndirAddr:0000    Implied
C5F4   FB   CF   0C    RTI    A:66    X:47    Y:01    P:EB    SP:FC       BaseAddr:0000    IndirAddr:0000    Implied
0CCF   00   F4   C5    BRK    A:66    X:47    Y:01    P:EB    SP:F9       BaseAddr:0000    IndirAddr:0000    Implied
C5F4   FB   D0   0C    RTI    A:66    X:47    Y:01    P:EB    SP:FC       BaseAddr:0000    IndirAddr:0000    Implied
0CD0   00   F4   C5    BRK    A:66    X:47    Y:01    P:EB    SP:F9       BaseAddr:0000    IndirAddr:0000    Implied
C5F4   FB   D1   0C    RTI    A:66    X:47    Y:01    P:EB    SP:FC       BaseAddr:0000    IndirAddr:0000    Implied
0CD1   00   F4   C5    BRK    A:66    X:47    Y:01    P:EB    SP:F9       BaseAddr:0000    IndirAddr:0000    Implied
C5F4   FB   D2   0C    RTI    A:66    X:47    Y:01    P:EB    SP:FC       BaseAddr:0000    IndirAddr:0000    Implied
0CD2   00   F4   C5    BRK    A:66    X:47    Y:01    P:EB    SP:F9       BaseAddr:0000    IndirAddr:0000    Implied
C5F4   FB   D3   0C    RTI    A:66    X:47    Y:01    P:EB    SP:FC       BaseAddr:0000    IndirAddr:0000    Implied
0CD3   00   F4   C5    BRK    A:66    X:47    Y:01    P:EB    SP:F9       BaseAddr:0000    IndirAddr:0000    Implied
C5F4   FB   D4   0C    RTI    A:66    X:47    Y:01    P:EB    SP:FC       BaseAddr:0000    IndirAddr:0000    Implied
0CD4   00   F4   C5    BRK    A:66    X:47    Y:01    P:EB    SP:F9       BaseAddr:0000    IndirAddr:0000    Implied
C5F4   FB   D5   0C    RTI    A:66    X:47    Y:01    P:EB    SP:FC       BaseAddr:0000    IndirAddr:0000    Implied
0CD5   00   F4   C5    BRK    A:66    X:47    Y:01    P:EB    SP:F9       BaseAddr:0000    IndirAddr:0000    Implied
C5F4   FB   D6   0C    RTI    A:66    X:47    Y:01    P:EB    SP:FC       BaseAddr:0000    IndirAddr:0000    Implied
0CD6   00   F4   C5    BRK    A:66    X:47    Y:01    P:EB    SP:F9       BaseAddr:0000    IndirAddr:0000    Implied
C5F4   FB   D7   0C    RTI    A:66    X:47    Y:01    P:EB    SP:FC       BaseAddr:0000    IndirAddr:0000    Implied
0CD7   00   F4   C5    BRK    A:66    X:47    Y:01    P:EB    SP:F9       BaseAddr:0000    IndirAddr:0000    Implied
C5F4   FB   D8   0C    RTI    A:66    X:47    Y:01    P:EB    SP:FC       BaseAddr:0000    IndirAddr:0000    Implied
0CD8   00   F4   C5    BRK    A:66    X:47    Y:01    P:EB    SP:F9       BaseAddr:0000    IndirAddr:0000    Implied
C5F4   FB   D9   0C    RTI    A:66    X:47    Y:01    P:EB    SP:FC       BaseAddr:0000    IndirAddr:0000    Implied
0CD9   00   F4   C5    BRK    A:66    X:47    Y:01    P:EB    SP:F9       BaseAddr:0000    IndirAddr:0000    Implied
C5F4   FB   DA   0C    RTI    A:66    X:47    Y:01    P:EB    SP:FC       BaseAddr:0000    IndirAddr:0000    Implied
0CDA   00   F4   C5    BRK    A:66    X:47    Y:01    P:EB    SP:F9       BaseAddr:0000    IndirAddr:0000    Implied
C5F4   FB   DB   0C    RTI    A:66    X:47    Y:01    P:EB    SP:FC       BaseAddr:0000    IndirAddr:0000    Implied
0CDB   00   F4   C5    BRK    A:66    X:47    Y:01    P:EB    SP:F9       BaseAddr:0000    IndirAddr:0000    Implied
C5F4   FB   DC   0C    RTI    A:66    X:47    Y:01    P:EB    SP:FC       BaseAddr:0000    IndirAddr:0000    Implied
0CDC   00   F4   C5    BRK    A:66    X:47    Y:01    P:EB    SP:F9       BaseAddr:0000    IndirAddr:0000    Implied
C5F4   FB   DD   0C    RTI    A:66    X:47    Y:01    P:EB    SP:FC       BaseAddr:0000    IndirAddr:0000    Implied
0CDD   00   F4   C5    BRK    A:66    X:47    Y:01    P:EB    SP:F9       BaseAddr:0000    IndirAddr:0000    Implied
C5F4   FB   DE   0C    RTI    A:66    X:47    Y:01    P:EB    SP:FC       BaseAddr:0000    IndirAddr:0000    Implied
0CDE   00   F4   C5    BRK    A:66    X:47    Y:01    P:EB    SP:F9       BaseAddr:0000    IndirAddr:0000    Implied
C5F4   FB   DF   0C    RTI    A:66    X:47    Y:01    P:EB    SP:FC       BaseAddr:0000    IndirAddr:0000    Implied
0CDF   00   F4   C5    BRK    A:66    X:47    Y:01    P:EB    SP:F9       BaseAddr:0000    IndirAddr:0000    Implied
C5F4   FB   E0   0C    RTI    A:66    X:47    Y:01    P:EB    SP:FC       BaseAddr:0000    IndirAddr:0000    Implied
0CE0   00   F4   C5    BRK    A:66    X:47    Y:01    P:EB    SP:F9       BaseAddr:0000    IndirAddr:0000    Implied
C5F4   FB   E1   0C    RTI    A:66    X:47    Y:01    P:EB    SP:FC       BaseAddr:0000    IndirAddr:0000    Implied
0CE1   00   F4   C5    BRK    A:66    X:47    Y:01    P:EB    SP:F9       BaseAddr:0000    IndirAddr:0000    Implied
C5F4   FB   E2   0C    RTI    A:66    X:47    Y:01    P:EB    SP:FC       BaseAddr:0000    IndirAddr:0000    Implied
0CE2   00   F4   C5    BRK    A:66    X:47    Y:01    P:EB    SP:F9       BaseAddr:0000    IndirAddr:0000    Implied
C5F4   FB   E3   0C    RTI    A:66    X:47    Y:01    P:EB    SP:FC       BaseAddr:0000    IndirAddr:0000    Implied
0CE3   00   F4   C5    BRK    A:66    X:47    Y:01    P:EB    SP:F9       BaseAddr:0000    IndirAddr:0000    Implied
C5F4   FB   E4   0C    RTI    A:66    X:47    Y:01    P:EB    SP:FC       BaseAddr:0000    IndirAddr:0000    Implied
0CE4   00   F4   C5    BRK    A:66    X:47    Y:01    P:EB    SP:F9       BaseAddr:0000    IndirAddr:0000    Implied
C5F4   FB   E5   0C    RTI    A:66    X:47    Y:01    P:EB    SP:FC       BaseAddr:0000    IndirAddr:0000    Implied
0CE5   00   F4   C5    BRK    A:66    X:47    Y:01    P:EB    SP:F9       BaseAddr:0000    IndirAddr:0000    Implied
C5F4   FB   E6   0C    RTI    A:66    X:47    Y:01    P:EB    SP:FC       BaseAddr:0000    IndirAddr:0000    Implied
0CE6   00   F4   C5    BRK    A:66    X:47    Y:01    P:EB    SP:F9       BaseAddr:0000    IndirAddr:0000    Implied
C5F4   FB   E7   0C    RTI    A:66    X:47    Y:01    P:EB    SP:FC       BaseAddr:0000    IndirAddr:0000    Implied
0CE7   00   F4   C5    BRK    A:66    X:47    Y:01    P:EB    SP:F9       BaseAddr:0000    IndirAddr:0000    Implied
C5F4   FB   E8   0C    RTI    A:66    X:47    Y:01    P:EB    SP:FC       BaseAddr:0000    IndirAddr:0000    Implied
0CE8   00   F4   C5    BRK    A:66    X:47    Y:01    P:EB    SP:F9       BaseAddr:0000    IndirAddr:0000    Implied
C5F4   FB   E9   0C    RTI    A:66    X:47    Y:01    P:EB    SP:FC       BaseAddr:0000    IndirAddr:0000    Implied
0CE9   00   F4   C5    BRK    A:66    X:47    Y:01    P:EB    SP:F9       BaseAddr:0000    IndirAddr:0000    Implied
C5F4   FB   EA   0C    RTI    A:66    X:47    Y:01    P:EB    SP:FC       BaseAddr:0000    IndirAddr:0000    Implied
0CEA   00   F4   C5    BRK    A:66    X:47    Y:01    P:EB    SP:F9       BaseAddr:0000    IndirAddr:0000    Implied
C5F4   FB   EB   0C    RTI    A:66    X:47    Y:01    P:EB    SP:FC       BaseAddr:0000    IndirAddr:0000    Implied
0CEB   00   F4   C5    BRK    A:66    X:47    Y:01    P:EB    SP:F9       BaseAddr:0000    IndirAddr:0000    Implied
C5F4   FB   EC   0C    RTI    A:66    X:47    Y:01    P:EB    SP:FC       BaseAddr:0000    IndirAddr:0000    Implied
0CEC   00   F4   C5    BRK    A:66    X:47    Y:01    P:EB    SP:F9       BaseAddr:0000    IndirAddr:0000    Implied
C5F4   FB   ED   0C    RTI    A:66    X:47    Y:01    P:EB    SP:FC       BaseAddr:0000    IndirAddr:0000    Implied
0CED   00   F4   C5    BRK    A:66    X:47    Y:01    P:EB    SP:F9       BaseAddr:0000    IndirAddr:0000    Implied
C5F4   FB   EE   0C    RTI    A:66    X:47    Y:01    P:EB    SP:FC       BaseAddr:0000    IndirAddr:0000    Implied
0CEE   00   F4   C5    BRK    A:66    X:47    Y:01    P:EB    SP:F9       BaseAddr:0000    IndirAddr:0000    Implied
C5F4   FB   EF   0C    RTI    A:66    X:47    Y:01    P:EB    SP:FC       BaseAddr:0000    IndirAddr:0000    Implied
0CEF   00   F4   C5    BRK    A:66    X:47    Y:01    P:EB    SP:F9       BaseAddr:0000    IndirAddr:0000    Implied
C5F4   FB   F0   0C    RTI    A:66    X:47    Y:01    P:EB    SP:FC       BaseAddr:0000    IndirAddr:0000    Implied
0CF0   00   F4   C5    BRK    A:66    X:47    Y:01    P:EB    SP:F9       BaseAddr:0000    IndirAddr:0000    Implied
C5F4   FB   F1   0C    RTI    A:66    X:47    Y:01    P:EB    SP:FC       BaseAddr:0000    IndirAddr:0000    Implied
0CF1   00   F4   C5    BRK    A:66    X:47    Y:01    P:EB    SP:F9       BaseAddr:0000    IndirAddr:0000    Implied
C5F4   FB   F2   0C    RTI    A:66    X:47    Y:01    P:EB    SP:FC       BaseAddr:0000    IndirAddr:0000    Implied
0CF2   00   F4   C5    BRK    A:66    X:47    Y:01    P:EB    SP:F9       BaseAddr:0000    IndirAddr:0000    Implied
C5F4   FB   F3   0C    RTI    A:66    X:47    Y:01    P:EB    SP:FC       BaseAddr:0000    IndirAddr:0000    Implied
0CF3   00   F4   C5    BRK    A:66    X:47    Y:01    P:EB    SP:F9       BaseAddr:0000    IndirAddr:0000    Implied
C5F4   FB   F4   0C    RTI    A:66    X:47    Y:01    P:EB    SP:FC       BaseAddr:0000    IndirAddr:0000    Implied
0CF4   00   F4   C5    BRK    A:66    X:47    Y:01    P:EB    SP:F9       BaseAddr:0000    IndirAddr:0000    Implied
C5F4   FB   F5   0C    RTI    A:66    X:47    Y:01    P:EB    SP:FC       BaseAddr:0000    IndirAddr:0000    Implied
0CF5   00   F4   C5    BRK    A:66    X:47    Y:01    P:EB    SP:F9       BaseAddr:0000    IndirAddr:0000    Implied
C5F4   FB   F6   0C    RTI    A:66    X:47    Y:01    P:EB    SP:FC       BaseAddr:0000    IndirAddr:0000    Implied
0CF6   00   F4   C5    BRK    A:66    X:47    Y:01    P:EB    SP:F9       BaseAddr:0000    IndirAddr:0000    Implied
C5F4   FB   F7   0C    RTI    A:66    X:47    Y:01    P:EB    SP:FC       BaseAddr:0000    IndirAddr:0000    Implied
0CF7   00   F4   C5    BRK    A:66    X:47    Y:01    P:EB    SP:F9       BaseAddr:0000    IndirAddr:0000    Implied
C5F4   FB   F8   0C    RTI    A:66    X:47    Y:01    P:EB    SP:FC       BaseAddr:0000    IndirAddr:0000    Implied
0CF8   00   F4   C5    BRK    A:66    X:47    Y:01    P:EB    SP:F9       BaseAddr:0000    IndirAddr:0000    Implied
C5F4   FB   F9   0C    RTI    A:66    X:47    Y:01    P:EB    SP:FC       BaseAddr:0000    IndirAddr:0000    Implied
0CF9   00   F4   C5    BRK    A:66    X:47    Y:01    P:EB    SP:F9       BaseAddr:0000    IndirAddr:0000    Implied
C5F4   FB   FA   0C    RTI    A:66    X:47    Y:01    P:EB    SP:FC       BaseAddr:0000    IndirAddr:0000    Implied
0CFA   00   F4   C5    BRK    A:66    X:47    Y:01    P:EB    SP:F9       BaseAddr:0000    IndirAddr:0000    Implied
C5F4   FB   FB   0C    RTI    A:66    X:47    Y:01    P:EB    SP:FC       BaseAddr:0000    IndirAddr:0000    Implied
0CFB   00   F4   C5    BRK    A:66    X:47    Y:01    P:EB    SP:F9       BaseAddr:0000    IndirAddr:0000    Implied
C5F4   FB   FC   0C    RTI    A:66    X:47    Y:01    P:EB    SP:FC       BaseAddr:0000    IndirAddr:0000    Implied
0CFC   00   F4   C5    BRK    A:66    X:47    Y:01    P:EB    SP:F9       BaseAddr:0000    IndirAddr:0000    Implied
C5F4   FB   FD   0C    RTI    A:66    X:47    Y:01    P:EB    SP:FC       BaseAddr:0000    IndirAddr:0000    Implied
0CFD   00   F4   C5    BRK    A:66    X:47    Y:01    P:EB    SP:F9       BaseAddr:0000    IndirAddr:0000    Implied
C5F4   FB   FE   0C    RTI    A:66    X:47    Y:01    P:EB    SP:FC       BaseAddr:0000    IndirAddr:0000    Implied
0CFE   00   F4   C5    BRK    A:66    X:47    Y:01    P:EB    SP:F9       BaseAddr:0000    IndirAddr:0000    Implied
C5F4   FB   FF   0C    RTI    A:66    X:47    Y:01    P:EB    SP:FC       BaseAddr:0000    IndirAddr:0000    Implied
0CFF   00   F4   C5    BRK    A:66    X:47    Y:01    P:EB    SP:F9       BaseAddr:0000    IndirAddr:0000    Implied
C5F4   FB   00   0D    RTI    A:66    X:47    Y:01    P:EB    SP:FC       BaseAddr:0000    IndirAddr:0000    Implied
0D00   00   F4   C5    BRK    A:66    X:47    Y:01    P:EB    SP:F9       BaseAddr:0000    IndirAddr:0000    Implied
C5F4   FB   01   0D    RTI    A:66    X:47    Y:01    P:EB    SP:FC       BaseAddr:0000    IndirAddr:0000    Implied
0D01   00   F4   C5    BRK    A:66    X:47    Y:01    P:EB    SP:F9       BaseAddr:0000    IndirAddr:0000    Implied
C5F4   FB   02   0D    RTI    A:66    X:47    Y:01    P:EB    SP:FC       BaseAddr:0000    IndirAddr:0000    Implied
0D02   00   F4   C5    BRK    A:66    X:47    Y:01    P:EB    SP:F9       BaseAddr:0000    IndirAddr:0000    Implied
C5F4   FB   03   0D    RTI    A:66    X:47    Y:01    P:EB    SP:FC       BaseAddr:0000    IndirAddr:0000    Implied
0D03   00   F4   C5    BRK    A:66    X:47    Y:01    P:EB    SP:F9       BaseAddr:0000    IndirAddr:0000    Implied
C5F4   FB   04   0D    RTI    A:66    X:47    Y:01    P:EB    SP:FC       BaseAddr:0000    IndirAddr:0000    Implied
0D04   00   F4   C5    BRK    A:66    X:47    Y:01    P:EB    SP:F9       BaseAddr:0000    IndirAddr:0000    Implied
C5F4   FB   05   0D    RTI    A:66    X:47    Y:01    P:EB    SP:FC       BaseAddr:0000    IndirAddr:0000    Implied
0D05   00   F4   C5    BRK    A:66    X:47    Y:01    P:EB    SP:F9       BaseAddr:0000    IndirAddr:0000    Implied
C5F4   FB   06   0D    RTI    A:66    X:47    Y:01    P:EB    SP:FC       BaseAddr:0000    IndirAddr:0000    Implied
0D06   00   F4   C5    BRK    A:66    X:47    Y:01    P:EB    SP:F9       BaseAddr:0000    IndirAddr:0000    Implied
C5F4   FB   07   0D    RTI    A:66    X:47    Y:01    P:EB    SP:FC       BaseAddr:0000    IndirAddr:0000    Implied
0D07   00   F4   C5    BRK    A:66    X:47    Y:01    P:EB    SP:F9       BaseAddr:0000    IndirAddr:0000    Implied
C5F4   FB   08   0D    RTI    A:66    X:47    Y:01    P:EB    SP:FC       BaseAddr:0000    IndirAddr:0000    Implied
0D08   00   F4   C5    BRK    A:66    X:47    Y:01    P:EB    SP:F9       BaseAddr:0000    IndirAddr:0000    Implied
C5F4   FB   09   0D    RTI    A:66    X:47    Y:01    P:EB    SP:FC       BaseAddr:0000    IndirAddr:0000    Implied
0D09   00   F4   C5    BRK    A:66    X:47    Y:01    P:EB    SP:F9       BaseAddr:0000    IndirAddr:0000    Implied
C5F4   FB   0A   0D    RTI    A:66    X:47    Y:01    P:EB    SP:FC       BaseAddr:0000    IndirAddr:0000    Implied
0D0A   00   F4   C5    BRK    A:66    X:47    Y:01    P:EB    SP:F9       BaseAddr:0000    IndirAddr:0000    Implied
C5F4   FB   0B   0D    RTI    A:66    X:47    Y:01    P:EB    SP:FC       BaseAddr:0000    IndirAddr:0000    Implied
0D0B   00   F4   C5    BRK    A:66    X:47    Y:01    P:EB    SP:F9       BaseAddr:0000    IndirAddr:0000    Implied
C5F4   FB   0C   0D    RTI    A:66    X:47    Y:01    P:EB    SP:FC       BaseAddr:0000    IndirAddr:0000    Implied
0D0C   00   F4   C5    BRK    A:66    X:47    Y:01    P:EB    SP:F9       BaseAddr:0000    IndirAddr:0000    Implied
C5F4   FB   0D   0D    RTI    A:66    X:47    Y:01    P:EB    SP:FC       BaseAddr:0000    IndirAddr:0000    Implied
0D0D   00   F4   C5    BRK    A:66    X:47    Y:01    P:EB    SP:F9       BaseAddr:0000    IndirAddr:0000    Implied
C5F4   FB   0E   0D    RTI    A:66    X:47    Y:01    P:EB    SP:FC       BaseAddr:0000    IndirAddr:0000    Implied
0D0E   00   F4   C5    BRK    A:66    X:47    Y:01    P:EB    SP:F9       BaseAddr:0000    IndirAddr:0000    Implied
C5F4   FB   0F   0D    RTI    A:66    X:47    Y:01    P:EB    SP:FC       BaseAddr:0000    IndirAddr:0000    Implied
0D0F   00   F4   C5    BRK    A:66    X:47    Y:01    P:EB    SP:F9       BaseAddr:0000    IndirAddr:0000    Implied
C5F4   FB   10   0D    RTI    A:66    X:47    Y:01    P:EB    SP:FC       BaseAddr:0000    IndirAddr:0000    Implied
0D10   00   F4   C5    BRK    A:66    X:47    Y:01    P:EB    SP:F9       BaseAddr:0000    IndirAddr:0000    Implied
C5F4   FB   11   0D    RTI    A:66    X:47    Y:01    P:EB    SP:FC       BaseAddr:0000    IndirAddr:0000    Implied
0D11   00   F4   C5    BRK    A:66    X:47    Y:01    P:EB    SP:F9       BaseAddr:0000    IndirAddr:0000    Implied
C5F4   FB   12   0D    RTI    A:66    X:47    Y:01    P:EB    SP:FC       BaseAddr:0000    IndirAddr:0000    Implied
0D12   00   F4   C5    BRK    A:66    X:47    Y:01    P:EB    SP:F9       BaseAddr:0000    IndirAddr:0000    Implied
C5F4   FB   13   0D    RTI    A:66    X:47    Y:01    P:EB    SP:FC       BaseAddr:0000    IndirAddr:0000    Implied
0D13   00   F4   C5    BRK    A:66    X:47    Y:01    P:EB    SP:F9       BaseAddr:0000    IndirAddr:0000    Implied
C5F4   FB   14   0D    RTI    A:66    X:47    Y:01    P:EB    SP:FC       BaseAddr:0000    IndirAddr:0000    Implied
0D14   00   F4   C5    BRK    A:66    X:47    Y:01    P:EB    SP:F9       BaseAddr:0000    IndirAddr:0000    Implied
C5F4   FB   15   0D    RTI    A:66    X:47    Y:01    P:EB    SP:FC       BaseAddr:0000    IndirAddr:0000    Implied
0D15   00   F4   C5    BRK    A:66    X:47    Y:01    P:EB    SP:F9       BaseAddr:0000    IndirAddr:0000    Implied
C5F4   FB   16   0D    RTI    A:66    X:47    Y:01    P:EB    SP:FC       BaseAddr:0000    IndirAddr:0000    Implied
0D16   00   F4   C5    BRK    A:66    X:47    Y:01    P:EB    SP:F9       BaseAddr:0000    IndirAddr:0000    Implied
C5F4   FB   17   0D    RTI    A:66    X:47    Y:01    P:EB    SP:FC       BaseAddr:0000    IndirAddr:0000    Implied
0D17   00   F4   C5    BRK    A:66    X:47    Y:01    P:EB    SP:F9       BaseAddr:0000    IndirAddr:0000    Implied
C5F4   FB   18   0D    RTI    A:66    X:47    Y:01    P:EB    SP:FC       BaseAddr:0000    IndirAddr:0000    Implied
0D18   00   F4   C5    BRK    A:66    X:47    Y:01    P:EB    SP:F9       BaseAddr:0000    IndirAddr:0000    Implied
C5F4   FB   19   0D    RTI    A:66    X:47    Y:01    P:EB    SP:FC       BaseAddr:0000    IndirAddr:0000    Implied
0D19   00   F4   C5    BRK    A:66    X:47    Y:01    P:EB    SP:F9       BaseAddr:0000    IndirAddr:0000    Implied
C5F4   FB   1A   0D    RTI    A:66    X:47    Y:01    P:EB    SP:FC       BaseAddr:0000    IndirAddr:0000    Implied
0D1A   00   F4   C5    BRK    A:66    X:47    Y:01    P:EB    SP:F9       BaseAddr:0000    IndirAddr:0000    Implied
C5F4   FB   1B   0D    RTI    A:66    X:47    Y:01    P:EB    SP:FC       BaseAddr:0000    IndirAddr:0000    Implied
0D1B   00   F4   C5    BRK    A:66    X:47    Y:01    P:EB    SP:F9       BaseAddr:0000    IndirAddr:0000    Implied
C5F4   FB   1C   0D    RTI    A:66    X:47    Y:01    P:EB    SP:FC       BaseAddr:0000    IndirAddr:0000    Implied
0D1C   00   F4   C5    BRK    A:66    X:47    Y:01    P:EB    SP:F9       BaseAddr:0000    IndirAddr:0000    Implied
C5F4   FB   1D   0D    RTI    A:66    X:47    Y:01    P:EB    SP:FC       BaseAddr:0000    IndirAddr:0000    Implied
0D1D   00   F4   C5    BRK    A:66    X:47    Y:01    P:EB    SP:F9       BaseAddr:0000    IndirAddr:0000    Implied
C5F4   FB   1E   0D    RTI    A:66    X:47    Y:01    P:EB    SP:FC       BaseAddr:0000    IndirAddr:0000    Implied
0D1E   00   F4   C5    BRK    A:66    X:47    Y:01    P:EB    SP:F9       BaseAddr:0000    IndirAddr:0000    Implied
C5F4   FB   1F   0D    RTI    A:66    X:47    Y:01    P:EB    SP:FC       BaseAddr:0000    IndirAddr:0000    Implied
0D1F   00   F4   C5    BRK    A:66    X:47    Y:01    P:EB    SP:F9       BaseAddr:0000    IndirAddr:0000    Implied
C5F4   FB   20   0D    RTI    A:66    X:47    Y:01    P:EB    SP:FC       BaseAddr:0000    IndirAddr:0000    Implied
0D20   00   F4   C5    BRK    A:66    X:47    Y:01    P:EB    SP:F9       BaseAddr:0000    IndirAddr:0000    Implied
C5F4   FB   21   0D    RTI    A:66    X:47    Y:01    P:EB    SP:FC       BaseAddr:0000    IndirAddr:0000    Implied
0D21   00   F4   C5    BRK    A:66    X:47    Y:01    P:EB    SP:F9       BaseAddr:0000    IndirAddr:0000    Implied
C5F4   FB   22   0D    RTI    A:66    X:47    Y:01    P:EB    SP:FC       BaseAddr:0000    IndirAddr:0000    Implied
0D22   00   F4   C5    BRK    A:66    X:47    Y:01    P:EB    SP:F9       BaseAddr:0000    IndirAddr:0000    Implied
C5F4   FB   23   0D    RTI    A:66    X:47    Y:01    P:EB    SP:FC       BaseAddr:0000    IndirAddr:0000    Implied
0D23   00   F4   C5    BRK    A:66    X:47    Y:01    P:EB    SP:F9       BaseAddr:0000    IndirAddr:0000    Implied
C5F4   FB   24   0D    RTI    A:66    X:47    Y:01    P:EB    SP:FC       BaseAddr:0000    IndirAddr:0000    Implied
0D24   00   F4   C5    BRK    A:66    X:47    Y:01    P:EB    SP:F9       BaseAddr:0000    IndirAddr:0000    Implied
C5F4   FB   25   0D    RTI    A:66    X:47    Y:01    P:EB    SP:FC       BaseAddr:0000    IndirAddr:0000    Implied
0D25   00   F4   C5    BRK    A:66    X:47    Y:01    P:EB    SP:F9       BaseAddr:0000    IndirAddr:0000    Implied
C5F4   FB   26   0D    RTI    A:66    X:47    Y:01    P:EB    SP:FC       BaseAddr:0000    IndirAddr:0000    Implied
0D26   00   F4   C5    BRK    A:66    X:47    Y:01    P:EB    SP:F9       BaseAddr:0000    IndirAddr:0000    Implied
C5F4   FB   27   0D    RTI    A:66    X:47    Y:01    P:EB    SP:FC       BaseAddr:0000    IndirAddr:0000    Implied
0D27   00   F4   C5    BRK    A:66    X:47    Y:01    P:EB    SP:F9       BaseAddr:0000    IndirAddr:0000    Implied
C5F4   FB   28   0D    RTI    A:66    X:47    Y:01    P:EB    SP:FC       BaseAddr:0000    IndirAddr:0000    Implied
0D28   00   F4   C5    BRK    A:66    X:47    Y:01    P:EB    SP:F9       BaseAddr:0000    IndirAddr:0000    Implied
C5F4   FB   29   0D    RTI    A:66    X:47    Y:01    P:EB    SP:FC       BaseAddr:0000    IndirAddr:0000    Implied
0D29   00   F4   C5    BRK    A:66    X:47    Y:01    P:EB    SP:F9       BaseAddr:0000    IndirAddr:0000    Implied
C5F4   FB   2A   0D    RTI    A:66    X:47    Y:01    P:EB    SP:FC       BaseAddr:0000    IndirAddr:0000    Implied
0D2A   00   F4   C5    BRK    A:66    X:47    Y:01    P:EB    SP:F9       BaseAddr:0000    IndirAddr:0000    Implied
C5F4   FB   2B   0D    RTI    A:66    X:47    Y:01    P:EB    SP:FC       BaseAddr:0000    IndirAddr:0000    Implied
0D2B   00   F4   C5    BRK    A:66    X:47    Y:01    P:EB    SP:F9       BaseAddr:0000    IndirAddr:0000    Implied
C5F4   FB   2C   0D    RTI    A:66    X:47    Y:01    P:EB    SP:FC       BaseAddr:0000    IndirAddr:0000    Implied
0D2C   00   F4   C5    BRK    A:66    X:47    Y:01    P:EB    SP:F9       BaseAddr:0000    IndirAddr:0000    Implied
C5F4   FB   2D   0D    RTI    A:66    X:47    Y:01    P:EB    SP:FC       BaseAddr:0000    IndirAddr:0000    Implied
0D2D   00   F4   C5    BRK    A:66    X:47    Y:01    P:EB    SP:F9       BaseAddr:0000    IndirAddr:0000    Implied
C5F4   FB   2E   0D    RTI    A:66    X:47    Y:01    P:EB    SP:FC       BaseAddr:0000    IndirAddr:0000    Implied
0D2E   00   F4   C5    BRK    A:66    X:47    Y:01    P:EB    SP:F9       BaseAddr:0000    IndirAddr:0000    Implied
C5F4   FB   2F   0D    RTI    A:66    X:47    Y:01    P:EB    SP:FC       BaseAddr:0000    IndirAddr:0000    Implied
0D2F   00   F4   C5    BRK    A:66    X:47    Y:01    P:EB    SP:F9       BaseAddr:0000    IndirAddr:0000    Implied
C5F4   FB   30   0D    RTI    A:66    X:47    Y:01    P:EB    SP:FC       BaseAddr:0000    IndirAddr:0000    Implied
0D30   00   F4   C5    BRK    A:66    X:47    Y:01    P:EB    SP:F9       BaseAddr:0000    IndirAddr:0000    Implied
C5F4   FB   31   0D    RTI    A:66    X:47    Y:01    P:EB    SP:FC       BaseAddr:0000    IndirAddr:0000    Implied
0D31   00   F4   C5    BRK    A:66    X:47    Y:01    P:EB    SP:F9       BaseAddr:0000    IndirAddr:0000    Implied
C5F4   FB   32   0D    RTI    A:66    X:47    Y:01    P:EB    SP:FC       BaseAddr:0000    IndirAddr:0000    Implied
0D32   00   F4   C5    BRK    A:66    X:47    Y:01    P:EB    SP:F9       BaseAddr:0000    IndirAddr:0000    Implied
C5F4   FB   33   0D    RTI    A:66    X:47    Y:01    P:EB    SP:FC       BaseAddr:0000    IndirAddr:0000    Implied
0D33   00   F4   C5    BRK    A:66    X:47    Y:01    P:EB    SP:F9       BaseAddr:0000    IndirAddr:0000    Implied
C5F4   FB   34   0D    RTI    A:66    X:47    Y:01    P:EB    SP:FC       BaseAddr:0000    IndirAddr:0000    Implied
0D34   00   F4   C5    BRK    A:66    X:47    Y:01    P:EB    SP:F9       BaseAddr:0000    IndirAddr:0000    Implied
C5F4   FB   35   0D    RTI    A:66    X:47    Y:01    P:EB    SP:FC       BaseAddr:0000    IndirAddr:0000    Implied
0D35   00   F4   C5    BRK    A:66    X:47    Y:01    P:EB    SP:F9       BaseAddr:0000    IndirAddr:0000    Implied
C5F4   FB   36   0D    RTI    A:66    X:47    Y:01    P:EB    SP:FC       BaseAddr:0000    IndirAddr:0000    Implied
0D36   00   F4   C5    BRK    A:66    X:47    Y:01    P:EB    SP:F9       BaseAddr:0000    IndirAddr:0000    Implied
C5F4   FB   37   0D    RTI    A:66    X:47    Y:01    P:EB    SP:FC       BaseAddr:0000    IndirAddr:0000    Implied
0D37   00   F4   C5    BRK    A:66    X:47    Y:01    P:EB    SP:F9       BaseAddr:0000    IndirAddr:0000    Implied
C5F4   FB   38   0D    RTI    A:66    X:47    Y:01    P:EB    SP:FC       BaseAddr:0000    IndirAddr:0000    Implied
0D38   00   F4   C5    BRK    A:66    X:47    Y:01    P:EB    SP:F9       BaseAddr:0000    IndirAddr:0000    Implied
C5F4   FB   39   0D    RTI    A:66    X:47    Y:01    P:EB    SP:FC       BaseAddr:0000    IndirAddr:0000    Implied
0D39   00   F4   C5    BRK    A:66    X:47    Y:01    P:EB    SP:F9       BaseAddr:0000    IndirAddr:0000    Implied
C5F4   FB   3A   0D    RTI    A:66    X:47    Y:01    P:EB    SP:FC       BaseAddr:0000    IndirAddr:0000    Implied
0D3A   00   F4   C5    BRK    A:66    X:47    Y:01    P:EB    SP:F9       BaseAddr:0000    IndirAddr:0000    Implied
C5F4   FB   3B   0D    RTI    A:66    X:47    Y:01    P:EB    SP:FC       BaseAddr:0000    IndirAddr:0000    Implied
0D3B   00   F4   C5    BRK    A:66    X:47    Y:01    P:EB    SP:F9       BaseAddr:0000    IndirAddr:0000    Implied
C5F4   FB   3C   0D    RTI    A:66    X:47    Y:01    P:EB    SP:FC       BaseAddr:0000    IndirAddr:0000    Implied
0D3C   00   F4   C5    BRK    A:66    X:47    Y:01    P:EB    SP:F9       BaseAddr:0000    IndirAddr:0000    Implied
C5F4   FB   3D   0D    RTI    A:66    X:47    Y:01    P:EB    SP:FC       BaseAddr:0000    IndirAddr:0000    Implied
0D3D   00   F4   C5    BRK    A:66    X:47    Y:01    P:EB    SP:F9       BaseAddr:0000    IndirAddr:0000    Implied
C5F4   FB   3E   0D    RTI    A:66    X:47    Y:01    P:EB    SP:FC       BaseAddr:0000    IndirAddr:0000    Implied
0D3E   00   F4   C5    BRK    A:66    X:47    Y:01    P:EB    SP:F9       BaseAddr:0000    IndirAddr:0000    Implied
C5F4   FB   3F   0D    RTI    A:66    X:47    Y:01    P:EB    SP:FC       BaseAddr:0000    IndirAddr:0000    Implied
0D3F   00   F4   C5    BRK    A:66    X:47    Y:01    P:EB    SP:F9       BaseAddr:0000    IndirAddr:0000    Implied
C5F4   FB   40   0D    RTI    A:66    X:47    Y:01    P:EB    SP:FC       BaseAddr:0000    IndirAddr:0000    Implied
0D40   00   F4   C5    BRK    A:66    X:47    Y:01    P:EB    SP:F9       BaseAddr:0000    IndirAddr:0000    Implied
C5F4   FB   41   0D    RTI    A:66    X:47    Y:01    P:EB    SP:FC       BaseAddr:0000    IndirAddr:0000    Implied
0D41   00   F4   C5    BRK    A:66    X:47    Y:01    P:EB    SP:F9       BaseAddr:0000    IndirAddr:0000    Implied
C5F4   FB   42   0D    RTI    A:66    X:47    Y:01    P:EB    SP:FC       BaseAddr:0000    IndirAddr:0000    Implied
0D42   00   F4   C5    BRK    A:66    X:47    Y:01    P:EB    SP:F9       BaseAddr:0000    IndirAddr:0000    Implied
C5F4   FB   43   0D    RTI    A:66    X:47    Y:01    P:EB    SP:FC       BaseAddr:0000    IndirAddr:0000    Implied
0D43   00   F4   C5    BRK    A:66    X:47    Y:01    P:EB    SP:F9       BaseAddr:0000    IndirAddr:0000    Implied
C5F4   FB   44   0D    RTI    A:66    X:47    Y:01    P:EB    SP:FC       BaseAddr:0000    IndirAddr:0000    Implied
0D44   00   F4   C5    BRK    A:66    X:47    Y:01    P:EB    SP:F9       BaseAddr:0000    IndirAddr:0000    Implied
C5F4   FB   45   0D    RTI    A:66    X:47    Y:01    P:EB    SP:FC       BaseAddr:0000    IndirAddr:0000    Implied
0D45   00   F4   C5    BRK    A:66    X:47    Y:01    P:EB    SP:F9       BaseAddr:0000    IndirAddr:0000    Implied
C5F4   FB   46   0D    RTI    A:66    X:47    Y:01    P:EB    SP:FC       BaseAddr:0000    IndirAddr:0000    Implied
0D46   00   F4   C5    BRK    A:66    X:47    Y:01    P:EB    SP:F9       BaseAddr:0000    IndirAddr:0000    Implied
C5F4   FB   47   0D    RTI    A:66    X:47    Y:01    P:EB    SP:FC       BaseAddr:0000    IndirAddr:0000    Implied
0D47   00   F4   C5    BRK    A:66    X:47    Y:01    P:EB    SP:F9       BaseAddr:0000    IndirAddr:0000    Implied
C5F4   FB   48   0D    RTI    A:66    X:47    Y:01    P:EB    SP:FC       BaseAddr:0000    IndirAddr:0000    Implied
0D48   00   F4   C5    BRK    A:66    X:47    Y:01    P:EB    SP:F9       BaseAddr:0000    IndirAddr:0000    Implied
C5F4   FB   49   0D    RTI    A:66    X:47    Y:01    P:EB    SP:FC       BaseAddr:0000    IndirAddr:0000    Implied
0D49   00   F4   C5    BRK    A:66    X:47    Y:01    P:EB    SP:F9       BaseAddr:0000    IndirAddr:0000    Implied
C5F4   FB   4A   0D    RTI    A:66    X:47    Y:01    P:EB    SP:FC       BaseAddr:0000    IndirAddr:0000    Implied
0D4A   00   F4   C5    BRK    A:66    X:47    Y:01    P:EB    SP:F9       BaseAddr:0000    IndirAddr:0000    Implied
C5F4   FB   4B   0D    RTI    A:66    X:47    Y:01    P:EB    SP:FC       BaseAddr:0000    IndirAddr:0000    Implied
0D4B   00   F4   C5    BRK    A:66    X:47    Y:01    P:EB    SP:F9       BaseAddr:0000    IndirAddr:0000    Implied
C5F4   FB   4C   0D    RTI    A:66    X:47    Y:01    P:EB    SP:FC       BaseAddr:0000    IndirAddr:0000    Implied
0D4C   00   F4   C5    BRK    A:66    X:47    Y:01    P:EB    SP:F9       BaseAddr:0000    IndirAddr:0000    Implied
C5F4   FB   4D   0D    RTI    A:66    X:47    Y:01    P:EB    SP:FC       BaseAddr:0000    IndirAddr:0000    Implied
0D4D   00   F4   C5    BRK    A:66    X:47    Y:01    P:EB    SP:F9       BaseAddr:0000    IndirAddr:0000    Implied
C5F4   FB   4E   0D    RTI    A:66    X:47    Y:01    P:EB    SP:FC       BaseAddr:0000    IndirAddr:0000    Implied
0D4E   00   F4   C5    BRK    A:66    X:47    Y:01    P:EB    SP:F9       BaseAddr:0000    IndirAddr:0000    Implied
C5F4   FB   4F   0D    RTI    A:66    X:47    Y:01    P:EB    SP:FC       BaseAddr:0000    IndirAddr:0000    Implied
0D4F   00   F4   C5    BRK    A:66    X:47    Y:01    P:EB    SP:F9       BaseAddr:0000    IndirAddr:0000    Implied
C5F4   FB   50   0D    RTI    A:66    X:47    Y:01    P:EB    SP:FC       BaseAddr:0000    IndirAddr:0000    Implied
0D50   00   F4   C5    BRK    A:66    X:47    Y:01    P:EB    SP:F9       BaseAddr:0000    IndirAddr:0000    Implied
C5F4   FB   51   0D    RTI    A:66    X:47    Y:01    P:EB    SP:FC       BaseAddr:0000    IndirAddr:0000    Implied
0D51   00   F4   C5    BRK    A:66    X:47    Y:01    P:EB    SP:F9       BaseAddr:0000    IndirAddr:0000    Implied
C5F4   FB   52   0D    RTI    A:66    X:47    Y:01    P:EB    SP:FC       BaseAddr:0000    IndirAddr:0000    Implied
0D52   00   F4   C5    BRK    A:66    X:47    Y:01    P:EB    SP:F9       BaseAddr:0000    IndirAddr:0000    Implied
C5F4   FB   53   0D    RTI    A:66    X:47    Y:01    P:EB    SP:FC       BaseAddr:0000    IndirAddr:0000    Implied
0D53   00   F4   C5    BRK    A:66    X:47    Y:01    P:EB    SP:F9       BaseAddr:0000    IndirAddr:0000    Implied
C5F4   FB   54   0D    RTI    A:66    X:47    Y:01    P:EB    SP:FC       BaseAddr:0000    IndirAddr:0000    Implied
0D54   00   F4   C5    BRK    A:66    X:47    Y:01    P:EB    SP:F9       BaseAddr:0000    IndirAddr:0000    Implied
C5F4   FB   55   0D    RTI    A:66    X:47    Y:01    P:EB    SP:FC       BaseAddr:0000    IndirAddr:0000    Implied
0D55   00   F4   C5    BRK    A:66    X:47    Y:01    P:EB    SP:F9       BaseAddr:0000    IndirAddr:0000    Implied
C5F4   FB   56   0D    RTI    A:66    X:47    Y:01    P:EB    SP:FC       BaseAddr:0000    IndirAddr:0000    Implied
0D56   00   F4   C5    BRK    A:66    X:47    Y:01    P:EB    SP:F9       BaseAddr:0000    IndirAddr:0000    Implied
C5F4   FB   57   0D    RTI    A:66    X:47    Y:01    P:EB    SP:FC       BaseAddr:0000    IndirAddr:0000    Implied
0D57   00   F4   C5    BRK    A:66    X:47    Y:01    P:EB    SP:F9       BaseAddr:0000    IndirAddr:0000    Implied
C5F4   FB   58   0D    RTI    A:66    X:47    Y:01    P:EB    SP:FC       BaseAddr:0000    IndirAddr:0000    Implied
0D58   00   F4   C5    BRK    A:66    X:47    Y:01    P:EB    SP:F9       BaseAddr:0000    IndirAddr:0000    Implied
C5F4   FB   59   0D    RTI    A:66    X:47    Y:01    P:EB    SP:FC       BaseAddr:0000    IndirAddr:0000    Implied
0D59   00   F4   C5    BRK    A:66    X:47    Y:01    P:EB    SP:F9       BaseAddr:0000    IndirAddr:0000    Implied
C5F4   FB   5A   0D    RTI    A:66    X:47    Y:01    P:EB    SP:FC       BaseAddr:0000    IndirAddr:0000    Implied
0D5A   00   F4   C5    BRK    A:66    X:47    Y:01    P:EB    SP:F9       BaseAddr:0000    IndirAddr:0000    Implied
C5F4   FB   5B   0D    RTI    A:66    X:47    Y:01    P:EB    SP:FC       BaseAddr:0000    IndirAddr:0000    Implied
0D5B   00   F4   C5    BRK    A:66    X:47    Y:01    P:EB    SP:F9       BaseAddr:0000    IndirAddr:0000    Implied
C5F4   FB   5C   0D    RTI    A:66    X:47    Y:01    P:EB    SP:FC       BaseAddr:0000    IndirAddr:0000    Implied
0D5C   00   F4   C5    BRK    A:66    X:47    Y:01    P:EB    SP:F9       BaseAddr:0000    IndirAddr:0000    Implied
C5F4   FB   5D   0D    RTI    A:66    X:47    Y:01    P:EB    SP:FC       BaseAddr:0000    IndirAddr:0000    Implied
0D5D   00   F4   C5    BRK    A:66    X:47    Y:01    P:EB    SP:F9       BaseAddr:0000    IndirAddr:0000    Implied
C5F4   FB   5E   0D    RTI    A:66    X:47    Y:01    P:EB    SP:FC       BaseAddr:0000    IndirAddr:0000    Implied
0D5E   00   F4   C5    BRK    A:66    X:47    Y:01    P:EB    SP:F9       BaseAddr:0000    IndirAddr:0000    Implied
C5F4   FB   5F   0D    RTI    A:66    X:47    Y:01    P:EB    SP:FC       BaseAddr:0000    IndirAddr:0000    Implied
0D5F   00   F4   C5    BRK    A:66    X:47    Y:01    P:EB    SP:F9       BaseAddr:0000    IndirAddr:0000    Implied
C5F4   FB   60   0D    RTI    A:66    X:47    Y:01    P:EB    SP:FC       BaseAddr:0000    IndirAddr:0000    Implied
0D60   00   F4   C5    BRK    A:66    X:47    Y:01    P:EB    SP:F9       BaseAddr:0000    IndirAddr:0000    Implied
C5F4   FB   61   0D    RTI    A:66    X:47    Y:01    P:EB    SP:FC       BaseAddr:0000    IndirAddr:0000    Implied
0D61   00   F4   C5    BRK    A:66    X:47    Y:01    P:EB    SP:F9       BaseAddr:0000    IndirAddr:0000    Implied
C5F4   FB   62   0D    RTI    A:66    X:47    Y:01    P:EB    SP:FC       BaseAddr:0000    IndirAddr:0000    Implied
0D62   00   F4   C5    BRK    A:66    X:47    Y:01    P:EB    SP:F9       BaseAddr:0000    IndirAddr:0000    Implied
C5F4   FB   63   0D    RTI    A:66    X:47    Y:01    P:EB    SP:FC       BaseAddr:0000    IndirAddr:0000    Implied
0D63   00   F4   C5    BRK    A:66    X:47    Y:01    P:EB    SP:F9       BaseAddr:0000    IndirAddr:0000    Implied
C5F4   FB   64   0D    RTI    A:66    X:47    Y:01    P:EB    SP:FC       BaseAddr:0000    IndirAddr:0000    Implied
0D64   00   F4   C5    BRK    A:66    X:47    Y:01    P:EB    SP:F9       BaseAddr:0000    IndirAddr:0000    Implied
C5F4   FB   65   0D    RTI    A:66    X:47    Y:01    P:EB    SP:FC       BaseAddr:0000    IndirAddr:0000    Implied
0D65   00   F4   C5    BRK    A:66    X:47    Y:01    P:EB    SP:F9       BaseAddr:0000    IndirAddr:0000    Implied
C5F4   FB   66   0D    RTI    A:66    X:47    Y:01    P:EB    SP:FC       BaseAddr:0000    IndirAddr:0000    Implied
0D66   00   F4   C5    BRK    A:66    X:47    Y:01    P:EB    SP:F9       BaseAddr:0000    IndirAddr:0000    Implied
C5F4   FB   67   0D    RTI    A:66    X:47    Y:01    P:EB    SP:FC       BaseAddr:0000    IndirAddr:0000    Implied
0D67   00   F4   C5    BRK    A:66    X:47    Y:01    P:EB    SP:F9       BaseAddr:0000    IndirAddr:0000    Implied
C5F4   FB   68   0D    RTI    A:66    X:47    Y:01    P:EB    SP:FC       BaseAddr:0000    IndirAddr:0000    Implied
0D68   00   F4   C5    BRK    A:66    X:47    Y:01    P:EB    SP:F9       BaseAddr:0000    IndirAddr:0000    Implied
C5F4   FB   69   0D    RTI    A:66    X:47    Y:01    P:EB    SP:FC       BaseAddr:0000    IndirAddr:0000    Implied
0D69   00   F4   C5    BRK    A:66    X:47    Y:01    P:EB    SP:F9       BaseAddr:0000    IndirAddr:0000    Implied
C5F4   FB   6A   0D    RTI    A:66    X:47    Y:01    P:EB    SP:FC       BaseAddr:0000    IndirAddr:0000    Implied
0D6A   00   F4   C5    BRK    A:66    X:47    Y:01    P:EB    SP:F9       BaseAddr:0000    IndirAddr:0000    Implied
C5F4   FB   6B   0D    RTI    A:66    X:47    Y:01    P:EB    SP:FC       BaseAddr:0000    IndirAddr:0000    Implied
0D6B   00   F4   C5    BRK    A:66    X:47    Y:01    P:EB    SP:F9       BaseAddr:0000    IndirAddr:0000    Implied
C5F4   FB   6C   0D    RTI    A:66    X:47    Y:01    P:EB    SP:FC       BaseAddr:0000    IndirAddr:0000    Implied
0D6C   00   F4   C5    BRK    A:66    X:47    Y:01    P:EB    SP:F9       BaseAddr:0000    IndirAddr:0000    Implied
C5F4   FB   6D   0D    RTI    A:66    X:47    Y:01    P:EB    SP:FC       BaseAddr:0000    IndirAddr:0000    Implied
0D6D   00   F4   C5    BRK    A:66    X:47    Y:01    P:EB    SP:F9       BaseAddr:0000    IndirAddr:0000    Implied
C5F4   FB   6E   0D    RTI    A:66    X:47    Y:01    P:EB    SP:FC       BaseAddr:0000    IndirAddr:0000    Implied
0D6E   00   F4   C5    BRK    A:66    X:47    Y:01    P:EB    SP:F9       BaseAddr:0000    IndirAddr:0000    Implied
C5F4   FB   6F   0D    RTI    A:66    X:47    Y:01    P:EB    SP:FC       BaseAddr:0000    IndirAddr:0000    Implied
0D6F   00   F4   C5    BRK    A:66    X:47    Y:01    P:EB    SP:F9       BaseAddr:0000    IndirAddr:0000    Implied
C5F4   FB   70   0D    RTI    A:66    X:47    Y:01    P:EB    SP:FC       BaseAddr:0000    IndirAddr:0000    Implied
0D70   00   F4   C5    BRK    A:66    X:47    Y:01    P:EB    SP:F9       BaseAddr:0000    IndirAddr:0000    Implied
C5F4   FB   71   0D    RTI    A:66    X:47    Y:01    P:EB    SP:FC       BaseAddr:0000    IndirAddr:0000    Implied
0D71   00   F4   C5    BRK    A:66    X:47    Y:01    P:EB    SP:F9       BaseAddr:0000    IndirAddr:0000    Implied
C5F4   FB   72   0D    RTI    A:66    X:47    Y:01    P:EB    SP:FC       BaseAddr:0000    IndirAddr:0000    Implied
0D72   00   F4   C5    BRK    A:66    X:47    Y:01    P:EB    SP:F9       BaseAddr:0000    IndirAddr:0000    Implied
C5F4   FB   73   0D    RTI    A:66    X:47    Y:01    P:EB    SP:FC       BaseAddr:0000    IndirAddr:0000    Implied
0D73   00   F4   C5    BRK    A:66    X:47    Y:01    P:EB    SP:F9       BaseAddr:0000    IndirAddr:0000    Implied
C5F4   FB   74   0D    RTI    A:66    X:47    Y:01    P:EB    SP:FC       BaseAddr:0000    IndirAddr:0000    Implied
0D74   00   F4   C5    BRK    A:66    X:47    Y:01    P:EB    SP:F9       BaseAddr:0000    IndirAddr:0000    Implied
C5F4   FB   75   0D    RTI    A:66    X:47    Y:01    P:EB    SP:FC       BaseAddr:0000    IndirAddr:0000    Implied
0D75   00   F4   C5    BRK    A:66    X:47    Y:01    P:EB    SP:F9       BaseAddr:0000    IndirAddr:0000    Implied
C5F4   FB   76   0D    RTI    A:66    X:47    Y:01    P:EB    SP:FC       BaseAddr:0000    IndirAddr:0000    Implied
0D76   00   F4   C5    BRK    A:66    X:47    Y:01    P:EB    SP:F9       BaseAddr:0000    IndirAddr:0000    Implied
C5F4   FB   77   0D    RTI    A:66    X:47    Y:01    P:EB    SP:FC       BaseAddr:0000    IndirAddr:0000    Implied
0D77   00   F4   C5    BRK    A:66    X:47    Y:01    P:EB    SP:F9       BaseAddr:0000    IndirAddr:0000    Implied
C5F4   FB   78   0D    RTI    A:66    X:47    Y:01    P:EB    SP:FC       BaseAddr:0000    IndirAddr:0000    Implied
0D78   00   F4   C5    BRK    A:66    X:47    Y:01    P:EB    SP:F9       BaseAddr:0000    IndirAddr:0000    Implied
C5F4   FB   79   0D    RTI    A:66    X:47    Y:01    P:EB    SP:FC       BaseAddr:0000    IndirAddr:0000    Implied
0D79   00   F4   C5    BRK    A:66    X:47    Y:01    P:EB    SP:F9       BaseAddr:0000    IndirAddr:0000    Implied
C5F4   FB   7A   0D    RTI    A:66    X:47    Y:01    P:EB    SP:FC       BaseAddr:0000    IndirAddr:0000    Implied
0D7A   00   F4   C5    BRK    A:66    X:47    Y:01    P:EB    SP:F9       BaseAddr:0000    IndirAddr:0000    Implied
C5F4   FB   7B   0D    RTI    A:66    X:47    Y:01    P:EB    SP:FC       BaseAddr:0000    IndirAddr:0000    Implied
0D7B   00   F4   C5    BRK    A:66    X:47    Y:01    P:EB    SP:F9       BaseAddr:0000    IndirAddr:0000    Implied
C5F4   FB   7C   0D    RTI    A:66    X:47    Y:01    P:EB    SP:FC       BaseAddr:0000    IndirAddr:0000    Implied
0D7C   00   F4   C5    BRK    A:66    X:47    Y:01    P:EB    SP:F9       BaseAddr:0000    IndirAddr:0000    Implied
C5F4   FB   7D   0D    RTI    A:66    X:47    Y:01    P:EB    SP:FC       BaseAddr:0000    IndirAddr:0000    Implied
0D7D   00   F4   C5    BRK    A:66    X:47    Y:01    P:EB    SP:F9       BaseAddr:0000    IndirAddr:0000    Implied
C5F4   FB   7E   0D    RTI    A:66    X:47    Y:01    P:EB    SP:FC       BaseAddr:0000    IndirAddr:0000    Implied
0D7E   00   F4   C5    BRK    A:66    X:47    Y:01    P:EB    SP:F9       BaseAddr:0000    IndirAddr:0000    Implied
C5F4   FB   7F   0D    RTI    A:66    X:47    Y:01    P:EB    SP:FC       BaseAddr:0000    IndirAddr:0000    Implied
0D7F   00   F4   C5    BRK    A:66    X:47    Y:01    P:EB    SP:F9       BaseAddr:0000    IndirAddr:0000    Implied
C5F4   FB   80   0D    RTI    A:66    X:47    Y:01    P:EB    SP:FC       BaseAddr:0000    IndirAddr:0000    Implied
0D80   00   F4   C5    BRK    A:66    X:47    Y:01    P:EB    SP:F9       BaseAddr:0000    IndirAddr:0000    Implied
C5F4   FB   81   0D    RTI    A:66    X:47    Y:01    P:EB    SP:FC       BaseAddr:0000    IndirAddr:0000    Implied
0D81   00   F4   C5    BRK    A:66    X:47    Y:01    P:EB    SP:F9       BaseAddr:0000    IndirAddr:0000    Implied
C5F4   FB   82   0D    RTI    A:66    X:47    Y:01    P:EB    SP:FC       BaseAddr:0000    IndirAddr:0000    Implied
0D82   00   F4   C5    BRK    A:66    X:47    Y:01    P:EB    SP:F9       BaseAddr:0000    IndirAddr:0000    Implied
C5F4   FB   83   0D    RTI    A:66    X:47    Y:01    P:EB    SP:FC       BaseAddr:0000    IndirAddr:0000    Implied
0D83   00   F4   C5    BRK    A:66    X:47    Y:01    P:EB    SP:F9       BaseAddr:0000    IndirAddr:0000    Implied
C5F4   FB   84   0D    RTI    A:66    X:47    Y:01    P:EB    SP:FC       BaseAddr:0000    IndirAddr:0000    Implied
0D84   00   F4   C5    BRK    A:66    X:47    Y:01    P:EB    SP:F9       BaseAddr:0000    IndirAddr:0000    Implied
C5F4   FB   85   0D    RTI    A:66    X:47    Y:01    P:EB    SP:FC       BaseAddr:0000    IndirAddr:0000    Implied
0D85   00   F4   C5    BRK    A:66    X:47    Y:01    P:EB    SP:F9       BaseAddr:0000    IndirAddr:0000    Implied
C5F4   FB   86   0D    RTI    A:66    X:47    Y:01    P:EB    SP:FC       BaseAddr:0000    IndirAddr:0000    Implied
0D86   00   F4   C5    BRK    A:66    X:47    Y:01    P:EB    SP:F9       BaseAddr:0000    IndirAddr:0000    Implied
C5F4   FB   87   0D    RTI    A:66    X:47    Y:01    P:EB    SP:FC       BaseAddr:0000    IndirAddr:0000    Implied
0D87   00   F4   C5    BRK    A:66    X:47    Y:01    P:EB    SP:F9       BaseAddr:0000    IndirAddr:0000    Implied
C5F4   FB   88   0D    RTI    A:66    X:47    Y:01    P:EB    SP:FC       BaseAddr:0000    IndirAddr:0000    Implied
0D88   00   F4   C5    BRK    A:66    X:47    Y:01    P:EB    SP:F9       BaseAddr:0000    IndirAddr:0000    Implied
C5F4   FB   89   0D    RTI    A:66    X:47    Y:01    P:EB    SP:FC       BaseAddr:0000    IndirAddr:0000    Implied
0D89   00   F4   C5    BRK    A:66    X:47    Y:01    P:EB    SP:F9       BaseAddr:0000    IndirAddr:0000    Implied
C5F4   FB   8A   0D    RTI    A:66    X:47    Y:01    P:EB    SP:FC       BaseAddr:0000    IndirAddr:0000    Implied
0D8A   00   F4   C5    BRK    A:66    X:47    Y:01    P:EB    SP:F9       BaseAddr:0000    IndirAddr:0000    Implied
C5F4   FB   8B   0D    RTI    A:66    X:47    Y:01    P:EB    SP:FC       BaseAddr:0000    IndirAddr:0000    Implied
0D8B   00   F4   C5    BRK    A:66    X:47    Y:01    P:EB    SP:F9       BaseAddr:0000    IndirAddr:0000    Implied
C5F4   FB   8C   0D    RTI    A:66    X:47    Y:01    P:EB    SP:FC       BaseAddr:0000    IndirAddr:0000    Implied
0D8C   00   F4   C5    BRK    A:66    X:47    Y:01    P:EB    SP:F9       BaseAddr:0000    IndirAddr:0000    Implied
C5F4   FB   8D   0D    RTI    A:66    X:47    Y:01    P:EB    SP:FC       BaseAddr:0000    IndirAddr:0000    Implied
0D8D   00   F4   C5    BRK    A:66    X:47    Y:01    P:EB    SP:F9       BaseAddr:0000    IndirAddr:0000    Implied
C5F4   FB   8E   0D    RTI    A:66    X:47    Y:01    P:EB    SP:FC       BaseAddr:0000    IndirAddr:0000    Implied
0D8E   00   F4   C5    BRK    A:66    X:47    Y:01    P:EB    SP:F9       BaseAddr:0000    IndirAddr:0000    Implied
C5F4   FB   8F   0D    RTI    A:66    X:47    Y:01    P:EB    SP:FC       BaseAddr:0000    IndirAddr:0000    Implied
0D8F   00   F4   C5    BRK    A:66    X:47    Y:01    P:EB    SP:F9       BaseAddr:0000    IndirAddr:0000    Implied
C5F4   FB   90   0D    RTI    A:66    X:47    Y:01    P:EB    SP:FC       BaseAddr:0000    IndirAddr:0000    Implied
0D90   00   F4   C5    BRK    A:66    X:47    Y:01    P:EB    SP:F9       BaseAddr:0000    IndirAddr:0000    Implied
C5F4   FB   91   0D    RTI    A:66    X:47    Y:01    P:EB    SP:FC       BaseAddr:0000    IndirAddr:0000    Implied
0D91   00   F4   C5    BRK    A:66    X:47    Y:01    P:EB    SP:F9       BaseAddr:0000    IndirAddr:0000    Implied
C5F4   FB   92   0D    RTI    A:66    X:47    Y:01    P:EB    SP:FC       BaseAddr:0000    IndirAddr:0000    Implied
0D92   00   F4   C5    BRK    A:66    X:47    Y:01    P:EB    SP:F9       BaseAddr:0000    IndirAddr:0000    Implied
C5F4   FB   93   0D    RTI    A:66    X:47    Y:01    P:EB    SP:FC       BaseAddr:0000    IndirAddr:0000    Implied
0D93   00   F4   C5    BRK    A:66    X:47    Y:01    P:EB    SP:F9       BaseAddr:0000    IndirAddr:0000    Implied
C5F4   FB   94   0D    RTI    A:66    X:47    Y:01    P:EB    SP:FC       BaseAddr:0000    IndirAddr:0000    Implied
0D94   00   F4   C5    BRK    A:66    X:47    Y:01    P:EB    SP:F9       BaseAddr:0000    IndirAddr:0000    Implied
C5F4   FB   95   0D    RTI    A:66    X:47    Y:01    P:EB    SP:FC       BaseAddr:0000    IndirAddr:0000    Implied
0D95   00   F4   C5    BRK    A:66    X:47    Y:01    P:EB    SP:F9       BaseAddr:0000    IndirAddr:0000    Implied
C5F4   FB   96   0D    RTI    A:66    X:47    Y:01    P:EB    SP:FC       BaseAddr:0000    IndirAddr:0000    Implied
0D96   00   F4   C5    BRK    A:66    X:47    Y:01    P:EB    SP:F9       BaseAddr:0000    IndirAddr:0000    Implied
C5F4   FB   97   0D    RTI    A:66    X:47    Y:01    P:EB    SP:FC       BaseAddr:0000    IndirAddr:0000    Implied
0D97   00   F4   C5    BRK    A:66    X:47    Y:01    P:EB    SP:F9       BaseAddr:0000    IndirAddr:0000    Implied
C5F4   FB   98   0D    RTI    A:66    X:47    Y:01    P:EB    SP:FC       BaseAddr:0000    IndirAddr:0000    Implied
0D98   00   F4   C5    BRK    A:66    X:47    Y:01    P:EB    SP:F9       BaseAddr:0000    IndirAddr:0000    Implied
C5F4   FB   99   0D    RTI    A:66    X:47    Y:01    P:EB    SP:FC       BaseAddr:0000    IndirAddr:0000    Implied
0D99   00   F4   C5    BRK    A:66    X:47    Y:01    P:EB    SP:F9       BaseAddr:0000    IndirAddr:0000    Implied
C5F4   FB   9A   0D    RTI    A:66    X:47    Y:01    P:EB    SP:FC       BaseAddr:0000    IndirAddr:0000    Implied
0D9A   00   F4   C5    BRK    A:66    X:47    Y:01    P:EB    SP:F9       BaseAddr:0000    IndirAddr:0000    Implied
C5F4   FB   9B   0D    RTI    A:66    X:47    Y:01    P:EB    SP:FC       BaseAddr:0000    IndirAddr:0000    Implied
0D9B   00   F4   C5    BRK    A:66    X:47    Y:01    P:EB    SP:F9       BaseAddr:0000    IndirAddr:0000    Implied
C5F4   FB   9C   0D    RTI    A:66    X:47    Y:01    P:EB    SP:FC       BaseAddr:0000    IndirAddr:0000    Implied
0D9C   00   F4   C5    BRK    A:66    X:47    Y:01    P:EB    SP:F9       BaseAddr:0000    IndirAddr:0000    Implied
C5F4   FB   9D   0D    RTI    A:66    X:47    Y:01    P:EB    SP:FC       BaseAddr:0000    IndirAddr:0000    Implied
0D9D   00   F4   C5    BRK    A:66    X:47    Y:01    P:EB    SP:F9       BaseAddr:0000    IndirAddr:0000    Implied
C5F4   FB   9E   0D    RTI    A:66    X:47    Y:01    P:EB    SP:FC       BaseAddr:0000    IndirAddr:0000    Implied
0D9E   00   F4   C5    BRK    A:66    X:47    Y:01    P:EB    SP:F9       BaseAddr:0000    IndirAddr:0000    Implied
C5F4   FB   9F   0D    RTI    A:66    X:47    Y:01    P:EB    SP:FC       BaseAddr:0000    IndirAddr:0000    Implied
0D9F   00   F4   C5    BRK    A:66    X:47    Y:01    P:EB    SP:F9       BaseAddr:0000    IndirAddr:0000    Implied
C5F4   FB   A0   0D    RTI    A:66    X:47    Y:01    P:EB    SP:FC       BaseAddr:0000    IndirAddr:0000    Implied
0DA0   00   F4   C5    BRK    A:66    X:47    Y:01    P:EB    SP:F9       BaseAddr:0000    IndirAddr:0000    Implied
C5F4   FB   A1   0D    RTI    A:66    X:47    Y:01    P:EB    SP:FC       BaseAddr:0000    IndirAddr:0000    Implied
0DA1   00   F4   C5    BRK    A:66    X:47    Y:01    P:EB    SP:F9       BaseAddr:0000    IndirAddr:0000    Implied
C5F4   FB   A2   0D    RTI    A:66    X:47    Y:01    P:EB    SP:FC       BaseAddr:0000    IndirAddr:0000    Implied
0DA2   00   F4   C5    BRK    A:66    X:47    Y:01    P:EB    SP:F9       BaseAddr:0000    IndirAddr:0000    Implied
C5F4   FB   A3   0D    RTI    A:66    X:47    Y:01    P:EB    SP:FC       BaseAddr:0000    IndirAddr:0000    Implied
0DA3   00   F4   C5    BRK    A:66    X:47    Y:01    P:EB    SP:F9       BaseAddr:0000    IndirAddr:0000    Implied
C5F4   FB   A4   0D    RTI    A:66    X:47    Y:01    P:EB    SP:FC       BaseAddr:0000    IndirAddr:0000    Implied
0DA4   00   F4   C5    BRK    A:66    X:47    Y:01    P:EB    SP:F9       BaseAddr:0000    IndirAddr:0000    Implied
C5F4   FB   A5   0D    RTI    A:66    X:47    Y:01    P:EB    SP:FC       BaseAddr:0000    IndirAddr:0000    Implied
0DA5   00   F4   C5    BRK    A:66    X:47    Y:01    P:EB    SP:F9       BaseAddr:0000    IndirAddr:0000    Implied
C5F4   FB   A6   0D    RTI    A:66    X:47    Y:01    P:EB    SP:FC       BaseAddr:0000    IndirAddr:0000    Implied
0DA6   00   F4   C5    BRK    A:66    X:47    Y:01    P:EB    SP:F9       BaseAddr:0000    IndirAddr:0000    Implied
C5F4   FB   A7   0D    RTI    A:66    X:47    Y:01    P:EB    SP:FC       BaseAddr:0000    IndirAddr:0000    Implied
0DA7   00   F4   C5    BRK    A:66    X:47    Y:01    P:EB    SP:F9       BaseAddr:0000    IndirAddr:0000    Implied
C5F4   FB   A8   0D    RTI    A:66    X:47    Y:01    P:EB    SP:FC       BaseAddr:0000    IndirAddr:0000    Implied
0DA8   00   F4   C5    BRK    A:66    X:47    Y:01    P:EB    SP:F9       BaseAddr:0000    IndirAddr:0000    Implied
C5F4   FB   A9   0D    RTI    A:66    X:47    Y:01    P:EB    SP:FC       BaseAddr:0000    IndirAddr:0000    Implied
0DA9   00   F4   C5    BRK    A:66    X:47    Y:01    P:EB    SP:F9       BaseAddr:0000    IndirAddr:0000    Implied
C5F4   FB   AA   0D    RTI    A:66    X:47    Y:01    P:EB    SP:FC       BaseAddr:0000    IndirAddr:0000    Implied
0DAA   00   F4   C5    BRK    A:66    X:47    Y:01    P:EB    SP:F9       BaseAddr:0000    IndirAddr:0000    Implied
C5F4   FB   AB   0D    RTI    A:66    X:47    Y:01    P:EB    SP:FC       BaseAddr:0000    IndirAddr:0000    Implied
0DAB   00   F4   C5    BRK    A:66    X:47    Y:01    P:EB    SP:F9       BaseAddr:0000    IndirAddr:0000    Implied
C5F4   FB   AC   0D    RTI    A:66    X:47    Y:01    P:EB    SP:FC       BaseAddr:0000    IndirAddr:0000    Implied
0DAC   00   F4   C5    BRK    A:66    X:47    Y:01    P:EB    SP:F9       BaseAddr:0000    IndirAddr:0000    Implied
C5F4   FB   AD   0D    RTI    A:66    X:47    Y:01    P:EB    SP:FC       BaseAddr:0000    IndirAddr:0000    Implied
0DAD   00   F4   C5    BRK    A:66    X:47    Y:01    P:EB    SP:F9       BaseAddr:0000    IndirAddr:0000    Implied
C5F4   FB   AE   0D    RTI    A:66    X:47    Y:01    P:EB    SP:FC       BaseAddr:0000    IndirAddr:0000    Implied
0DAE   00   F4   C5    BRK    A:66    X:47    Y:01    P:EB    SP:F9       BaseAddr:0000    IndirAddr:0000    Implied
C5F4   FB   AF   0D    RTI    A:66    X:47    Y:01    P:EB    SP:FC       BaseAddr:0000    IndirAddr:0000    Implied
0DAF   00   F4   C5    BRK    A:66    X:47    Y:01    P:EB    SP:F9       BaseAddr:0000    IndirAddr:0000    Implied
C5F4   FB   B0   0D    RTI    A:66    X:47    Y:01    P:EB    SP:FC       BaseAddr:0000    IndirAddr:0000    Implied
0DB0   00   F4   C5    BRK    A:66    X:47    Y:01    P:EB    SP:F9       BaseAddr:0000    IndirAddr:0000    Implied
C5F4   FB   B1   0D    RTI    A:66    X:47    Y:01    P:EB    SP:FC       BaseAddr:0000    IndirAddr:0000    Implied
0DB1   00   F4   C5    BRK    A:66    X:47    Y:01    P:EB    SP:F9       BaseAddr:0000    IndirAddr:0000    Implied
C5F4   FB   B2   0D    RTI    A:66    X:47    Y:01    P:EB    SP:FC       BaseAddr:0000    IndirAddr:0000    Implied
0DB2   00   F4   C5    BRK    A:66    X:47    Y:01    P:EB    SP:F9       BaseAddr:0000    IndirAddr:0000    Implied
C5F4   FB   B3   0D    RTI    A:66    X:47    Y:01    P:EB    SP:FC       BaseAddr:0000    IndirAddr:0000    Implied
0DB3   00   F4   C5    BRK    A:66    X:47    Y:01    P:EB    SP:F9       BaseAddr:0000    IndirAddr:0000    Implied
C5F4   FB   B4   0D    RTI    A:66    X:47    Y:01    P:EB    SP:FC       BaseAddr:0000    IndirAddr:0000    Implied
0DB4   00   F4   C5    BRK    A:66    X:47    Y:01    P:EB    SP:F9       BaseAddr:0000    IndirAddr:0000    Implied
C5F4   FB   B5   0D    RTI    A:66    X:47    Y:01    P:EB    SP:FC       BaseAddr:0000    IndirAddr:0000    Implied
0DB5   00   F4   C5    BRK    A:66    X:47    Y:01    P:EB    SP:F9       BaseAddr:0000    IndirAddr:0000    Implied
C5F4   FB   B6   0D    RTI    A:66    X:47    Y:01    P:EB    SP:FC       BaseAddr:0000    IndirAddr:0000    Implied
0DB6   00   F4   C5    BRK    A:66    X:47    Y:01    P:EB    SP:F9       BaseAddr:0000    IndirAddr:0000    Implied
C5F4   FB   B7   0D    RTI    A:66    X:47    Y:01    P:EB    SP:FC       BaseAddr:0000    IndirAddr:0000    Implied
0DB7   00   F4   C5    BRK    A:66    X:47    Y:01    P:EB    SP:F9       BaseAddr:0000    IndirAddr:0000    Implied
C5F4   FB   B8   0D    RTI    A:66    X:47    Y:01    P:EB    SP:FC       BaseAddr:0000    IndirAddr:0000    Implied
0DB8   00   F4   C5    BRK    A:66    X:47    Y:01    P:EB    SP:F9       BaseAddr:0000    IndirAddr:0000    Implied
C5F4   FB   B9   0D    RTI    A:66    X:47    Y:01    P:EB    SP:FC       BaseAddr:0000    IndirAddr:0000    Implied
0DB9   00   F4   C5    BRK    A:66    X:47    Y:01    P:EB    SP:F9       BaseAddr:0000    IndirAddr:0000    Implied
C5F4   FB   BA   0D    RTI    A:66    X:47    Y:01    P:EB    SP:FC       BaseAddr:0000    IndirAddr:0000    Implied
0DBA   00   F4   C5    BRK    A:66    X:47    Y:01    P:EB    SP:F9       BaseAddr:0000    IndirAddr:0000    Implied
C5F4   FB   BB   0D    RTI    A:66    X:47    Y:01    P:EB    SP:FC       BaseAddr:0000    IndirAddr:0000    Implied
0DBB   00   F4   C5    BRK    A:66    X:47    Y:01    P:EB    SP:F9       BaseAddr:0000    IndirAddr:0000    Implied
C5F4   FB   BC   0D    RTI    A:66    X:47    Y:01    P:EB    SP:FC       BaseAddr:0000    IndirAddr:0000    Implied
0DBC   00   F4   C5    BRK    A:66    X:47    Y:01    P:EB    SP:F9       BaseAddr:0000    IndirAddr:0000    Implied
C5F4   FB   BD   0D    RTI    A:66    X:47    Y:01    P:EB    SP:FC       BaseAddr:0000    IndirAddr:0000    Implied
0DBD   00   F4   C5    BRK    A:66    X:47    Y:01    P:EB    SP:F9       BaseAddr:0000    IndirAddr:0000    Implied
C5F4   FB   BE   0D    RTI    A:66    X:47    Y:01    P:EB    SP:FC       BaseAddr:0000    IndirAddr:0000    Implied
0DBE   00   F4   C5    BRK    A:66    X:47    Y:01    P:EB    SP:F9       BaseAddr:0000    IndirAddr:0000    Implied
C5F4   FB   BF   0D    RTI    A:66    X:47    Y:01    P:EB    SP:FC       BaseAddr:0000    IndirAddr:0000    Implied
0DBF   00   F4   C5    BRK    A:66    X:47    Y:01    P:EB    SP:F9       BaseAddr:0000    IndirAddr:0000    Implied
C5F4   FB   C0   0D    RTI    A:66    X:47    Y:01    P:EB    SP:FC       BaseAddr:0000    IndirAddr:0000    Implied
0DC0   00   F4   C5    BRK    A:66    X:47    Y:01    P:EB    SP:F9       BaseAddr:0000    IndirAddr:0000    Implied
C5F4   FB   C1   0D    RTI    A:66    X:47    Y:01    P:EB    SP:FC       BaseAddr:0000    IndirAddr:0000    Implied
0DC1   00   F4   C5    BRK    A:66    X:47    Y:01    P:EB    SP:F9       BaseAddr:0000    IndirAddr:0000    Implied
C5F4   FB   C2   0D    RTI    A:66    X:47    Y:01    P:EB    SP:FC       BaseAddr:0000    IndirAddr:0000    Implied
0DC2   00   F4   C5    BRK    A:66    X:47    Y:01    P:EB    SP:F9       BaseAddr:0000    IndirAddr:0000    Implied
C5F4   FB   C3   0D    RTI    A:66    X:47    Y:01    P:EB    SP:FC       BaseAddr:0000    IndirAddr:0000    Implied
0DC3   00   F4   C5    BRK    A:66    X:47    Y:01    P:EB    SP:F9       BaseAddr:0000    IndirAddr:0000    Implied
C5F4   FB   C4   0D    RTI    A:66    X:47    Y:01    P:EB    SP:FC       BaseAddr:0000    IndirAddr:0000    Implied
0DC4   00   F4   C5    BRK    A:66    X:47    Y:01    P:EB    SP:F9       BaseAddr:0000    IndirAddr:0000    Implied
C5F4   FB   C5   0D    RTI    A:66    X:47    Y:01    P:EB    SP:FC       BaseAddr:0000    IndirAddr:0000    Implied
0DC5   00   F4   C5    BRK    A:66    X:47    Y:01    P:EB    SP:F9       BaseAddr:0000    IndirAddr:0000    Implied
C5F4   FB   C6   0D    RTI    A:66    X:47    Y:01    P:EB    SP:FC       BaseAddr:0000    IndirAddr:0000    Implied
0DC6   00   F4   C5    BRK    A:66    X:47    Y:01    P:EB    SP:F9       BaseAddr:0000    IndirAddr:0000    Implied
C5F4   FB   C7   0D    RTI    A:66    X:47    Y:01    P:EB    SP:FC       BaseAddr:0000    IndirAddr:0000    Implied
0DC7   00   F4   C5    BRK    A:66    X:47    Y:01    P:EB    SP:F9       BaseAddr:0000    IndirAddr:0000    Implied
C5F4   FB   C8   0D    RTI    A:66    X:47    Y:01    P:EB    SP:FC       BaseAddr:0000    IndirAddr:0000    Implied
0DC8   00   F4   C5    BRK    A:66    X:47    Y:01    P:EB    SP:F9       BaseAddr:0000    IndirAddr:0000    Implied
C5F4   FB   C9   0D    RTI    A:66    X:47    Y:01    P:EB    SP:FC       BaseAddr:0000    IndirAddr:0000    Implied
0DC9   00   F4   C5    BRK    A:66    X:47    Y:01    P:EB    SP:F9       BaseAddr:0000    IndirAddr:0000    Implied
C5F4   FB   CA   0D    RTI    A:66    X:47    Y:01    P:EB    SP:FC       BaseAddr:0000    IndirAddr:0000    Implied
0DCA   00   F4   C5    BRK    A:66    X:47    Y:01    P:EB    SP:F9       BaseAddr:0000    IndirAddr:0000    Implied
C5F4   FB   CB   0D    RTI    A:66    X:47    Y:01    P:EB    SP:FC       BaseAddr:0000    IndirAddr:0000    Implied
0DCB   00   F4   C5    BRK    A:66    X:47    Y:01    P:EB    SP:F9       BaseAddr:0000    IndirAddr:0000    Implied
C5F4   FB   CC   0D    RTI    A:66    X:47    Y:01    P:EB    SP:FC       BaseAddr:0000    IndirAddr:0000    Implied
0DCC   00   F4   C5    BRK    A:66    X:47    Y:01    P:EB    SP:F9       BaseAddr:0000    IndirAddr:0000    Implied
C5F4   FB   CD   0D    RTI    A:66    X:47    Y:01    P:EB    SP:FC       BaseAddr:0000    IndirAddr:0000    Implied
0DCD   00   F4   C5    BRK    A:66    X:47    Y:01    P:EB    SP:F9       BaseAddr:0000    IndirAddr:0000    Implied
C5F4   FB   CE   0D    RTI    A:66    X:47    Y:01    P:EB    SP:FC       BaseAddr:0000    IndirAddr:0000    Implied
0DCE   00   F4   C5    BRK    A:66    X:47    Y:01    P:EB    SP:F9       BaseAddr:0000    IndirAddr:0000    Implied
C5F4   FB   CF   0D    RTI    A:66    X:47    Y:01    P:EB    SP:FC       BaseAddr:0000    IndirAddr:0000    Implied
0DCF   00   F4   C5    BRK    A:66    X:47    Y:01    P:EB    SP:F9       BaseAddr:0000    IndirAddr:0000    Implied
C5F4   FB   D0   0D    RTI    A:66    X:47    Y:01    P:EB    SP:FC       BaseAddr:0000    IndirAddr:0000    Implied
0DD0   00   F4   C5    BRK    A:66    X:47    Y:01    P:EB    SP:F9       BaseAddr:0000    IndirAddr:0000    Implied
C5F4   FB   D1   0D    RTI    A:66    X:47    Y:01    P:EB    SP:FC       BaseAddr:0000    IndirAddr:0000    Implied
0DD1   00   F4   C5    BRK    A:66    X:47    Y:01    P:EB    SP:F9       BaseAddr:0000    IndirAddr:0000    Implied
C5F4   FB   D2   0D    RTI    A:66    X:47    Y:01    P:EB    SP:FC       BaseAddr:0000    IndirAddr:0000    Implied
0DD2   00   F4   C5    BRK    A:66    X:47    Y:01    P:EB    SP:F9       BaseAddr:0000    IndirAddr:0000    Implied
C5F4   FB   D3   0D    RTI    A:66    X:47    Y:01    P:EB    SP:FC       BaseAddr:0000    IndirAddr:0000    Implied
0DD3   00   F4   C5    BRK    A:66    X:47    Y:01    P:EB    SP:F9       BaseAddr:0000    IndirAddr:0000    Implied
C5F4   FB   D4   0D    RTI    A:66    X:47    Y:01    P:EB    SP:FC       BaseAddr:0000    IndirAddr:0000    Implied
0DD4   00   F4   C5    BRK    A:66    X:47    Y:01    P:EB    SP:F9       BaseAddr:0000    IndirAddr:0000    Implied
C5F4   FB   D5   0D    RTI    A:66    X:47    Y:01    P:EB    SP:FC       BaseAddr:0000    IndirAddr:0000    Implied
0DD5   00   F4   C5    BRK    A:66    X:47    Y:01    P:EB    SP:F9       BaseAddr:0000    IndirAddr:0000    Implied
C5F4   FB   D6   0D    RTI    A:66    X:47    Y:01    P:EB    SP:FC       BaseAddr:0000    IndirAddr:0000    Implied
0DD6   00   F4   C5    BRK    A:66    X:47    Y:01    P:EB    SP:F9       BaseAddr:0000    IndirAddr:0000    Implied
C5F4   FB   D7   0D    RTI    A:66    X:47    Y:01    P:EB    SP:FC       BaseAddr:0000    IndirAddr:0000    Implied
0DD7   00   F4   C5    BRK    A:66    X:47    Y:01    P:EB    SP:F9       BaseAddr:0000    IndirAddr:0000    Implied
C5F4   FB   D8   0D    RTI    A:66    X:47    Y:01    P:EB    SP:FC       BaseAddr:0000    IndirAddr:0000    Implied
0DD8   00   F4   C5    BRK    A:66    X:47    Y:01    P:EB    SP:F9       BaseAddr:0000    IndirAddr:0000    Implied
C5F4   FB   D9   0D    RTI    A:66    X:47    Y:01    P:EB    SP:FC       BaseAddr:0000    IndirAddr:0000    Implied
0DD9   00   F4   C5    BRK    A:66    X:47    Y:01    P:EB    SP:F9       BaseAddr:0000    IndirAddr:0000    Implied
C5F4   FB   DA   0D    RTI    A:66    X:47    Y:01    P:EB    SP:FC       BaseAddr:0000    IndirAddr:0000    Implied
0DDA   00   F4   C5    BRK    A:66    X:47    Y:01    P:EB    SP:F9       BaseAddr:0000    IndirAddr:0000    Implied
C5F4   FB   DB   0D    RTI    A:66    X:47    Y:01    P:EB    SP:FC       BaseAddr:0000    IndirAddr:0000    Implied
0DDB   00   F4   C5    BRK    A:66    X:47    Y:01    P:EB    SP:F9       BaseAddr:0000    IndirAddr:0000    Implied
C5F4   FB   DC   0D    RTI    A:66    X:47    Y:01    P:EB    SP:FC       BaseAddr:0000    IndirAddr:0000    Implied
0DDC   00   F4   C5    BRK    A:66    X:47    Y:01    P:EB    SP:F9       BaseAddr:0000    IndirAddr:0000    Implied
C5F4   FB   DD   0D    RTI    A:66    X:47    Y:01    P:EB    SP:FC       BaseAddr:0000    IndirAddr:0000    Implied
0DDD   00   F4   C5    BRK    A:66    X:47    Y:01    P:EB    SP:F9       BaseAddr:0000    IndirAddr:0000    Implied
C5F4   FB   DE   0D    RTI    A:66    X:47    Y:01    P:EB    SP:FC       BaseAddr:0000    IndirAddr:0000    Implied
0DDE   00   F4   C5    BRK    A:66    X:47    Y:01    P:EB    SP:F9       BaseAddr:0000    IndirAddr:0000    Implied
C5F4   FB   DF   0D    RTI    A:66    X:47    Y:01    P:EB    SP:FC       BaseAddr:0000    IndirAddr:0000    Implied
0DDF   00   F4   C5    BRK    A:66    X:47    Y:01    P:EB    SP:F9       BaseAddr:0000    IndirAddr:0000    Implied
C5F4   FB   E0   0D    RTI    A:66    X:47    Y:01    P:EB    SP:FC       BaseAddr:0000    IndirAddr:0000    Implied
0DE0   00   F4   C5    BRK    A:66    X:47    Y:01    P:EB    SP:F9       BaseAddr:0000    IndirAddr:0000    Implied
C5F4   FB   E1   0D    RTI    A:66    X:47    Y:01    P:EB    SP:FC       BaseAddr:0000    IndirAddr:0000    Implied
0DE1   00   F4   C5    BRK    A:66    X:47    Y:01    P:EB    SP:F9       BaseAddr:0000    IndirAddr:0000    Implied
C5F4   FB   E2   0D    RTI    A:66    X:47    Y:01    P:EB    SP:FC       BaseAddr:0000    IndirAddr:0000    Implied
0DE2   00   F4   C5    BRK    A:66    X:47    Y:01    P:EB    SP:F9       BaseAddr:0000    IndirAddr:0000    Implied
C5F4   FB   E3   0D    RTI    A:66    X:47    Y:01    P:EB    SP:FC       BaseAddr:0000    IndirAddr:0000    Implied
0DE3   00   F4   C5    BRK    A:66    X:47    Y:01    P:EB    SP:F9       BaseAddr:0000    IndirAddr:0000    Implied
C5F4   FB   E4   0D    RTI    A:66    X:47    Y:01    P:EB    SP:FC       BaseAddr:0000    IndirAddr:0000    Implied
0DE4   00   F4   C5    BRK    A:66    X:47    Y:01    P:EB    SP:F9       BaseAddr:0000    IndirAddr:0000    Implied
C5F4   FB   E5   0D    RTI    A:66    X:47    Y:01    P:EB    SP:FC       BaseAddr:0000    IndirAddr:0000    Implied
0DE5   00   F4   C5    BRK    A:66    X:47    Y:01    P:EB    SP:F9       BaseAddr:0000    IndirAddr:0000    Implied
C5F4   FB   E6   0D    RTI    A:66    X:47    Y:01    P:EB    SP:FC       BaseAddr:0000    IndirAddr:0000    Implied
0DE6   00   F4   C5    BRK    A:66    X:47    Y:01    P:EB    SP:F9       BaseAddr:0000    IndirAddr:0000    Implied
C5F4   FB   E7   0D    RTI    A:66    X:47    Y:01    P:EB    SP:FC       BaseAddr:0000    IndirAddr:0000    Implied
0DE7   00   F4   C5    BRK    A:66    X:47    Y:01    P:EB    SP:F9       BaseAddr:0000    IndirAddr:0000    Implied
C5F4   FB   E8   0D    RTI    A:66    X:47    Y:01    P:EB    SP:FC       BaseAddr:0000    IndirAddr:0000    Implied
0DE8   00   F4   C5    BRK    A:66    X:47    Y:01    P:EB    SP:F9       BaseAddr:0000    IndirAddr:0000    Implied
C5F4   FB   E9   0D    RTI    A:66    X:47    Y:01    P:EB    SP:FC       BaseAddr:0000    IndirAddr:0000    Implied
0DE9   00   F4   C5    BRK    A:66    X:47    Y:01    P:EB    SP:F9       BaseAddr:0000    IndirAddr:0000    Implied
C5F4   FB   EA   0D    RTI    A:66    X:47    Y:01    P:EB    SP:FC       BaseAddr:0000    IndirAddr:0000    Implied
0DEA   00   F4   C5    BRK    A:66    X:47    Y:01    P:EB    SP:F9       BaseAddr:0000    IndirAddr:0000    Implied
C5F4   FB   EB   0D    RTI    A:66    X:47    Y:01    P:EB    SP:FC       BaseAddr:0000    IndirAddr:0000    Implied
0DEB   00   F4   C5    BRK    A:66    X:47    Y:01    P:EB    SP:F9       BaseAddr:0000    IndirAddr:0000    Implied
C5F4   FB   EC   0D    RTI    A:66    X:47    Y:01    P:EB    SP:FC       BaseAddr:0000    IndirAddr:0000    Implied
0DEC   00   F4   C5    BRK    A:66    X:47    Y:01    P:EB    SP:F9       BaseAddr:0000    IndirAddr:0000    Implied
C5F4   FB   ED   0D    RTI    A:66    X:47    Y:01    P:EB    SP:FC       BaseAddr:0000    IndirAddr:0000    Implied
0DED   00   F4   C5    BRK    A:66    X:47    Y:01    P:EB    SP:F9       BaseAddr:0000    IndirAddr:0000    Implied
C5F4   FB   EE   0D    RTI    A:66    X:47    Y:01    P:EB    SP:FC       BaseAddr:0000    IndirAddr:0000    Implied
0DEE   00   F4   C5    BRK    A:66    X:47    Y:01    P:EB    SP:F9       BaseAddr:0000    IndirAddr:0000    Implied
C5F4   FB   EF   0D    RTI    A:66    X:47    Y:01    P:EB    SP:FC       BaseAddr:0000    IndirAddr:0000    Implied
0DEF   00   F4   C5    BRK    A:66    X:47    Y:01    P:EB    SP:F9       BaseAddr:0000    IndirAddr:0000    Implied
C5F4   FB   F0   0D    RTI    A:66    X:47    Y:01    P:EB    SP:FC       BaseAddr:0000    IndirAddr:0000    Implied
0DF0   00   F4   C5    BRK    A:66    X:47    Y:01    P:EB    SP:F9       BaseAddr:0000    IndirAddr:0000    Implied
C5F4   FB   F1   0D    RTI    A:66    X:47    Y:01    P:EB    SP:FC       BaseAddr:0000    IndirAddr:0000    Implied
0DF1   00   F4   C5    BRK    A:66    X:47    Y:01    P:EB    SP:F9       BaseAddr:0000    IndirAddr:0000    Implied
C5F4   FB   F2   0D    RTI    A:66    X:47    Y:01    P:EB    SP:FC       BaseAddr:0000    IndirAddr:0000    Implied
0DF2   00   F4   C5    BRK    A:66    X:47    Y:01    P:EB    SP:F9       BaseAddr:0000    IndirAddr:0000    Implied
C5F4   FB   F3   0D    RTI    A:66    X:47    Y:01    P:EB    SP:FC       BaseAddr:0000    IndirAddr:0000    Implied
0DF3   00   F4   C5    BRK    A:66    X:47    Y:01    P:EB    SP:F9       BaseAddr:0000    IndirAddr:0000    Implied
C5F4   FB   F4   0D    RTI    A:66    X:47    Y:01    P:EB    SP:FC       BaseAddr:0000    IndirAddr:0000    Implied
0DF4   00   F4   C5    BRK    A:66    X:47    Y:01    P:EB    SP:F9       BaseAddr:0000    IndirAddr:0000    Implied
C5F4   FB   F5   0D    RTI    A:66    X:47    Y:01    P:EB    SP:FC       BaseAddr:0000    IndirAddr:0000    Implied
0DF5   00   F4   C5    BRK    A:66    X:47    Y:01    P:EB    SP:F9       BaseAddr:0000    IndirAddr:0000    Implied
C5F4   FB   F6   0D    RTI    A:66    X:47    Y:01    P:EB    SP:FC       BaseAddr:0000    IndirAddr:0000    Implied
0DF6   00   F4   C5    BRK    A:66    X:47    Y:01    P:EB    SP:F9       BaseAddr:0000    IndirAddr:0000    Implied
C5F4   FB   F7   0D    RTI    A:66    X:47    Y:01    P:EB    SP:FC       BaseAddr:0000    IndirAddr:0000    Implied
0DF7   00   F4   C5    BRK    A:66    X:47    Y:01    P:EB    SP:F9       BaseAddr:0000    IndirAddr:0000    Implied
C5F4   FB   F8   0D    RTI    A:66    X:47    Y:01    P:EB    SP:FC       BaseAddr:0000    IndirAddr:0000    Implied
0DF8   00   F4   C5    BRK    A:66    X:47    Y:01    P:EB    SP:F9       BaseAddr:0000    IndirAddr:0000    Implied
C5F4   FB   F9   0D    RTI    A:66    X:47    Y:01    P:EB    SP:FC       BaseAddr:0000    IndirAddr:0000    Implied
0DF9   00   F4   C5    BRK    A:66    X:47    Y:01    P:EB    SP:F9       BaseAddr:0000    IndirAddr:0000    Implied
C5F4   FB   FA   0D    RTI    A:66    X:47    Y:01    P:EB    SP:FC       BaseAddr:0000    IndirAddr:0000    Implied
0DFA   00   F4   C5    BRK    A:66    X:47    Y:01    P:EB    SP:F9       BaseAddr:0000    IndirAddr:0000    Implied
C5F4   FB   FB   0D    RTI    A:66    X:47    Y:01    P:EB    SP:FC       BaseAddr:0000    IndirAddr:0000    Implied
0DFB   00   F4   C5    BRK    A:66    X:47    Y:01    P:EB    SP:F9       BaseAddr:0000    IndirAddr:0000    Implied
C5F4   FB   FC   0D    RTI    A:66    X:47    Y:01    P:EB    SP:FC       BaseAddr:0000    IndirAddr:0000    Implied
0DFC   00   F4   C5    BRK    A:66    X:47    Y:01    P:EB    SP:F9       BaseAddr:0000    IndirAddr:0000    Implied
C5F4   FB   FD   0D    RTI    A:66    X:47    Y:01    P:EB    SP:FC       BaseAddr:0000    IndirAddr:0000    Implied
0DFD   00   F4   C5    BRK    A:66    X:47    Y:01    P:EB    SP:F9       BaseAddr:0000    IndirAddr:0000    Implied
C5F4   FB   FE   0D    RTI    A:66    X:47    Y:01    P:EB    SP:FC       BaseAddr:0000    IndirAddr:0000    Implied
0DFE   00   F4   C5    BRK    A:66    X:47    Y:01    P:EB    SP:F9       BaseAddr:0000    IndirAddr:0000    Implied
C5F4   FB   FF   0D    RTI    A:66    X:47    Y:01    P:EB    SP:FC       BaseAddr:0000    IndirAddr:0000    Implied
0DFF   00   F4   C5    BRK    A:66    X:47    Y:01    P:EB    SP:F9       BaseAddr:0000    IndirAddr:0000    Implied
C5F4   FB   00   0E    RTI    A:66    X:47    Y:01    P:EB    SP:FC       BaseAddr:0000    IndirAddr:0000    Implied
0E00   00   F4   C5    BRK    A:66    X:47    Y:01    P:EB    SP:F9       BaseAddr:0000    IndirAddr:0000    Implied
C5F4   FB   01   0E    RTI    A:66    X:47    Y:01    P:EB    SP:FC       BaseAddr:0000    IndirAddr:0000    Implied
0E01   00   F4   C5    BRK    A:66    X:47    Y:01    P:EB    SP:F9       BaseAddr:0000    IndirAddr:0000    Implied
C5F4   FB   02   0E    RTI    A:66    X:47    Y:01    P:EB    SP:FC       BaseAddr:0000    IndirAddr:0000    Implied
0E02   00   F4   C5    BRK    A:66    X:47    Y:01    P:EB    SP:F9       BaseAddr:0000    IndirAddr:0000    Implied
C5F4   FB   03   0E    RTI    A:66    X:47    Y:01    P:EB    SP:FC       BaseAddr:0000    IndirAddr:0000    Implied
0E03   00   F4   C5    BRK    A:66    X:47    Y:01    P:EB    SP:F9       BaseAddr:0000    IndirAddr:0000    Implied
C5F4   FB   04   0E    RTI    A:66    X:47    Y:01    P:EB    SP:FC       BaseAddr:0000    IndirAddr:0000    Implied
0E04   00   F4   C5    BRK    A:66    X:47    Y:01    P:EB    SP:F9       BaseAddr:0000    IndirAddr:0000    Implied
C5F4   FB   05   0E    RTI    A:66    X:47    Y:01    P:EB    SP:FC       BaseAddr:0000    IndirAddr:0000    Implied
0E05   00   F4   C5    BRK    A:66    X:47    Y:01    P:EB    SP:F9       BaseAddr:0000    IndirAddr:0000    Implied
C5F4   FB   06   0E    RTI    A:66    X:47    Y:01    P:EB    SP:FC       BaseAddr:0000    IndirAddr:0000    Implied
0E06   00   F4   C5    BRK    A:66    X:47    Y:01    P:EB    SP:F9       BaseAddr:0000    IndirAddr:0000    Implied
C5F4   FB   07   0E    RTI    A:66    X:47    Y:01    P:EB    SP:FC       BaseAddr:0000    IndirAddr:0000    Implied
0E07   00   F4   C5    BRK    A:66    X:47    Y:01    P:EB    SP:F9       BaseAddr:0000    IndirAddr:0000    Implied
C5F4   FB   08   0E    RTI    A:66    X:47    Y:01    P:EB    SP:FC       BaseAddr:0000    IndirAddr:0000    Implied
0E08   00   F4   C5    BRK    A:66    X:47    Y:01    P:EB    SP:F9       BaseAddr:0000    IndirAddr:0000    Implied
C5F4   FB   09   0E    RTI    A:66    X:47    Y:01    P:EB    SP:FC       BaseAddr:0000    IndirAddr:0000    Implied
0E09   00   F4   C5    BRK    A:66    X:47    Y:01    P:EB    SP:F9       BaseAddr:0000    IndirAddr:0000    Implied
C5F4   FB   0A   0E    RTI    A:66    X:47    Y:01    P:EB    SP:FC       BaseAddr:0000    IndirAddr:0000    Implied
0E0A   00   F4   C5    BRK    A:66    X:47    Y:01    P:EB    SP:F9       BaseAddr:0000    IndirAddr:0000    Implied
C5F4   FB   0B   0E    RTI    A:66    X:47    Y:01    P:EB    SP:FC       BaseAddr:0000    IndirAddr:0000    Implied
0E0B   00   F4   C5    BRK    A:66    X:47    Y:01    P:EB    SP:F9       BaseAddr:0000    IndirAddr:0000    Implied
C5F4   FB   0C   0E    RTI    A:66    X:47    Y:01    P:EB    SP:FC       BaseAddr:0000    IndirAddr:0000    Implied
0E0C   00   F4   C5    BRK    A:66    X:47    Y:01    P:EB    SP:F9       BaseAddr:0000    IndirAddr:0000    Implied
C5F4   FB   0D   0E    RTI    A:66    X:47    Y:01    P:EB    SP:FC       BaseAddr:0000    IndirAddr:0000    Implied
0E0D   00   F4   C5    BRK    A:66    X:47    Y:01    P:EB    SP:F9       BaseAddr:0000    IndirAddr:0000    Implied
C5F4   FB   0E   0E    RTI    A:66    X:47    Y:01    P:EB    SP:FC       BaseAddr:0000    IndirAddr:0000    Implied
0E0E   00   F4   C5    BRK    A:66    X:47    Y:01    P:EB    SP:F9       BaseAddr:0000    IndirAddr:0000    Implied
C5F4   FB   0F   0E    RTI    A:66    X:47    Y:01    P:EB    SP:FC       BaseAddr:0000    IndirAddr:0000    Implied
0E0F   00   F4   C5    BRK    A:66    X:47    Y:01    P:EB    SP:F9       BaseAddr:0000    IndirAddr:0000    Implied
C5F4   FB   10   0E    RTI    A:66    X:47    Y:01    P:EB    SP:FC       BaseAddr:0000    IndirAddr:0000    Implied
0E10   00   F4   C5    BRK    A:66    X:47    Y:01    P:EB    SP:F9       BaseAddr:0000    IndirAddr:0000    Implied
C5F4   FB   11   0E    RTI    A:66    X:47    Y:01    P:EB    SP:FC       BaseAddr:0000    IndirAddr:0000    Implied
0E11   00   F4   C5    BRK    A:66    X:47    Y:01    P:EB    SP:F9       BaseAddr:0000    IndirAddr:0000    Implied
C5F4   FB   12   0E    RTI    A:66    X:47    Y:01    P:EB    SP:FC       BaseAddr:0000    IndirAddr:0000    Implied
0E12   00   F4   C5    BRK    A:66    X:47    Y:01    P:EB    SP:F9       BaseAddr:0000    IndirAddr:0000    Implied
C5F4   FB   13   0E    RTI    A:66    X:47    Y:01    P:EB    SP:FC       BaseAddr:0000    IndirAddr:0000    Implied
0E13   00   F4   C5    BRK    A:66    X:47    Y:01    P:EB    SP:F9       BaseAddr:0000    IndirAddr:0000    Implied
C5F4   FB   14   0E    RTI    A:66    X:47    Y:01    P:EB    SP:FC       BaseAddr:0000    IndirAddr:0000    Implied
0E14   00   F4   C5    BRK    A:66    X:47    Y:01    P:EB    SP:F9       BaseAddr:0000    IndirAddr:0000    Implied
C5F4   FB   15   0E    RTI    A:66    X:47    Y:01    P:EB    SP:FC       BaseAddr:0000    IndirAddr:0000    Implied
0E15   00   F4   C5    BRK    A:66    X:47    Y:01    P:EB    SP:F9       BaseAddr:0000    IndirAddr:0000    Implied
C5F4   FB   16   0E    RTI    A:66    X:47    Y:01    P:EB    SP:FC       BaseAddr:0000    IndirAddr:0000    Implied
0E16   00   F4   C5    BRK    A:66    X:47    Y:01    P:EB    SP:F9       BaseAddr:0000    IndirAddr:0000    Implied
C5F4   FB   17   0E    RTI    A:66    X:47    Y:01    P:EB    SP:FC       BaseAddr:0000    IndirAddr:0000    Implied
0E17   00   F4   C5    BRK    A:66    X:47    Y:01    P:EB    SP:F9       BaseAddr:0000    IndirAddr:0000    Implied
C5F4   FB   18   0E    RTI    A:66    X:47    Y:01    P:EB    SP:FC       BaseAddr:0000    IndirAddr:0000    Implied
0E18   00   F4   C5    BRK    A:66    X:47    Y:01    P:EB    SP:F9       BaseAddr:0000    IndirAddr:0000    Implied
C5F4   FB   19   0E    RTI    A:66    X:47    Y:01    P:EB    SP:FC       BaseAddr:0000    IndirAddr:0000    Implied
0E19   00   F4   C5    BRK    A:66    X:47    Y:01    P:EB    SP:F9       BaseAddr:0000    IndirAddr:0000    Implied
C5F4   FB   1A   0E    RTI    A:66    X:47    Y:01    P:EB    SP:FC       BaseAddr:0000    IndirAddr:0000    Implied
0E1A   00   F4   C5    BRK    A:66    X:47    Y:01    P:EB    SP:F9       BaseAddr:0000    IndirAddr:0000    Implied
C5F4   FB   1B   0E    RTI    A:66    X:47    Y:01    P:EB    SP:FC       BaseAddr:0000    IndirAddr:0000    Implied
0E1B   00   F4   C5    BRK    A:66    X:47    Y:01    P:EB    SP:F9       BaseAddr:0000    IndirAddr:0000    Implied
C5F4   FB   1C   0E    RTI    A:66    X:47    Y:01    P:EB    SP:FC       BaseAddr:0000    IndirAddr:0000    Implied
0E1C   00   F4   C5    BRK    A:66    X:47    Y:01    P:EB    SP:F9       BaseAddr:0000    IndirAddr:0000    Implied
C5F4   FB   1D   0E    RTI    A:66    X:47    Y:01    P:EB    SP:FC       BaseAddr:0000    IndirAddr:0000    Implied
0E1D   00   F4   C5    BRK    A:66    X:47    Y:01    P:EB    SP:F9       BaseAddr:0000    IndirAddr:0000    Implied
C5F4   FB   1E   0E    RTI    A:66    X:47    Y:01    P:EB    SP:FC       BaseAddr:0000    IndirAddr:0000    Implied
0E1E   00   F4   C5    BRK    A:66    X:47    Y:01    P:EB    SP:F9       BaseAddr:0000    IndirAddr:0000    Implied
C5F4   FB   1F   0E    RTI    A:66    X:47    Y:01    P:EB    SP:FC       BaseAddr:0000    IndirAddr:0000    Implied
0E1F   00   F4   C5    BRK    A:66    X:47    Y:01    P:EB    SP:F9       BaseAddr:0000    IndirAddr:0000    Implied
C5F4   FB   20   0E    RTI    A:66    X:47    Y:01    P:EB    SP:FC       BaseAddr:0000    IndirAddr:0000    Implied
0E20   00   F4   C5    BRK    A:66    X:47    Y:01    P:EB    SP:F9       BaseAddr:0000    IndirAddr:0000    Implied
C5F4   FB   21   0E    RTI    A:66    X:47    Y:01    P:EB    SP:FC       BaseAddr:0000    IndirAddr:0000    Implied
0E21   00   F4   C5    BRK    A:66    X:47    Y:01    P:EB    SP:F9       BaseAddr:0000    IndirAddr:0000    Implied
C5F4   FB   22   0E    RTI    A:66    X:47    Y:01    P:EB    SP:FC       BaseAddr:0000    IndirAddr:0000    Implied
0E22   00   F4   C5    BRK    A:66    X:47    Y:01    P:EB    SP:F9       BaseAddr:0000    IndirAddr:0000    Implied
C5F4   FB   23   0E    RTI    A:66    X:47    Y:01    P:EB    SP:FC       BaseAddr:0000    IndirAddr:0000    Implied
0E23   00   F4   C5    BRK    A:66    X:47    Y:01    P:EB    SP:F9       BaseAddr:0000    IndirAddr:0000    Implied
C5F4   FB   24   0E    RTI    A:66    X:47    Y:01    P:EB    SP:FC       BaseAddr:0000    IndirAddr:0000    Implied
0E24   00   F4   C5    BRK    A:66    X:47    Y:01    P:EB    SP:F9       BaseAddr:0000    IndirAddr:0000    Implied
C5F4   FB   25   0E    RTI    A:66    X:47    Y:01    P:EB    SP:FC       BaseAddr:0000    IndirAddr:0000    Implied
0E25   00   F4   C5    BRK    A:66    X:47    Y:01    P:EB    SP:F9       BaseAddr:0000    IndirAddr:0000    Implied
C5F4   FB   26   0E    RTI    A:66    X:47    Y:01    P:EB    SP:FC       BaseAddr:0000    IndirAddr:0000    Implied
0E26   00   F4   C5    BRK    A:66    X:47    Y:01    P:EB    SP:F9       BaseAddr:0000    IndirAddr:0000    Implied
C5F4   FB   27   0E    RTI    A:66    X:47    Y:01    P:EB    SP:FC       BaseAddr:0000    IndirAddr:0000    Implied
0E27   00   F4   C5    BRK    A:66    X:47    Y:01    P:EB    SP:F9       BaseAddr:0000    IndirAddr:0000    Implied
C5F4   FB   28   0E    RTI    A:66    X:47    Y:01    P:EB    SP:FC       BaseAddr:0000    IndirAddr:0000    Implied
0E28   00   F4   C5    BRK    A:66    X:47    Y:01    P:EB    SP:F9       BaseAddr:0000    IndirAddr:0000    Implied
C5F4   FB   29   0E    RTI    A:66    X:47    Y:01    P:EB    SP:FC       BaseAddr:0000    IndirAddr:0000    Implied
0E29   00   F4   C5    BRK    A:66    X:47    Y:01    P:EB    SP:F9       BaseAddr:0000    IndirAddr:0000    Implied
C5F4   FB   2A   0E    RTI    A:66    X:47    Y:01    P:EB    SP:FC       BaseAddr:0000    IndirAddr:0000    Implied
0E2A   00   F4   C5    BRK    A:66    X:47    Y:01    P:EB    SP:F9       BaseAddr:0000    IndirAddr:0000    Implied
C5F4   FB   2B   0E    RTI    A:66    X:47    Y:01    P:EB    SP:FC       BaseAddr:0000    IndirAddr:0000    Implied
0E2B   00   F4   C5    BRK    A:66    X:47    Y:01    P:EB    SP:F9       BaseAddr:0000    IndirAddr:0000    Implied
C5F4   FB   2C   0E    RTI    A:66    X:47    Y:01    P:EB    SP:FC       BaseAddr:0000    IndirAddr:0000    Implied
0E2C   00   F4   C5    BRK    A:66    X:47    Y:01    P:EB    SP:F9       BaseAddr:0000    IndirAddr:0000    Implied
C5F4   FB   2D   0E    RTI    A:66    X:47    Y:01    P:EB    SP:FC       BaseAddr:0000    IndirAddr:0000    Implied
0E2D   00   F4   C5    BRK    A:66    X:47    Y:01    P:EB    SP:F9       BaseAddr:0000    IndirAddr:0000    Implied
C5F4   FB   2E   0E    RTI    A:66    X:47    Y:01    P:EB    SP:FC       BaseAddr:0000    IndirAddr:0000    Implied
0E2E   00   F4   C5    BRK    A:66    X:47    Y:01    P:EB    SP:F9       BaseAddr:0000    IndirAddr:0000    Implied
C5F4   FB   2F   0E    RTI    A:66    X:47    Y:01    P:EB    SP:FC       BaseAddr:0000    IndirAddr:0000    Implied
0E2F   00   F4   C5    BRK    A:66    X:47    Y:01    P:EB    SP:F9       BaseAddr:0000    IndirAddr:0000    Implied
C5F4   FB   30   0E    RTI    A:66    X:47    Y:01    P:EB    SP:FC       BaseAddr:0000    IndirAddr:0000    Implied
0E30   00   F4   C5    BRK    A:66    X:47    Y:01    P:EB    SP:F9       BaseAddr:0000    IndirAddr:0000    Implied
C5F4   FB   31   0E    RTI    A:66    X:47    Y:01    P:EB    SP:FC       BaseAddr:0000    IndirAddr:0000    Implied
0E31   00   F4   C5    BRK    A:66    X:47    Y:01    P:EB    SP:F9       BaseAddr:0000    IndirAddr:0000    Implied
C5F4   FB   32   0E    RTI    A:66    X:47    Y:01    P:EB    SP:FC       BaseAddr:0000    IndirAddr:0000    Implied
0E32   00   F4   C5    BRK    A:66    X:47    Y:01    P:EB    SP:F9       BaseAddr:0000    IndirAddr:0000    Implied
C5F4   FB   33   0E    RTI    A:66    X:47    Y:01    P:EB    SP:FC       BaseAddr:0000    IndirAddr:0000    Implied
0E33   00   F4   C5    BRK    A:66    X:47    Y:01    P:EB    SP:F9       BaseAddr:0000    IndirAddr:0000    Implied
C5F4   FB   34   0E    RTI    A:66    X:47    Y:01    P:EB    SP:FC       BaseAddr:0000    IndirAddr:0000    Implied
0E34   00   F4   C5    BRK    A:66    X:47    Y:01    P:EB    SP:F9       BaseAddr:0000    IndirAddr:0000    Implied
C5F4   FB   35   0E    RTI    A:66    X:47    Y:01    P:EB    SP:FC       BaseAddr:0000    IndirAddr:0000    Implied
0E35   00   F4   C5    BRK    A:66    X:47    Y:01    P:EB    SP:F9       BaseAddr:0000    IndirAddr:0000    Implied
C5F4   FB   36   0E    RTI    A:66    X:47    Y:01    P:EB    SP:FC       BaseAddr:0000    IndirAddr:0000    Implied
0E36   00   F4   C5    BRK    A:66    X:47    Y:01    P:EB    SP:F9       BaseAddr:0000    IndirAddr:0000    Implied
C5F4   FB   37   0E    RTI    A:66    X:47    Y:01    P:EB    SP:FC       BaseAddr:0000    IndirAddr:0000    Implied
0E37   00   F4   C5    BRK    A:66    X:47    Y:01    P:EB    SP:F9       BaseAddr:0000    IndirAddr:0000    Implied
C5F4   FB   38   0E    RTI    A:66    X:47    Y:01    P:EB    SP:FC       BaseAddr:0000    IndirAddr:0000    Implied
0E38   00   F4   C5    BRK    A:66    X:47    Y:01    P:EB    SP:F9       BaseAddr:0000    IndirAddr:0000    Implied
C5F4   FB   39   0E    RTI    A:66    X:47    Y:01    P:EB    SP:FC       BaseAddr:0000    IndirAddr:0000    Implied
0E39   00   F4   C5    BRK    A:66    X:47    Y:01    P:EB    SP:F9       BaseAddr:0000    IndirAddr:0000    Implied
C5F4   FB   3A   0E    RTI    A:66    X:47    Y:01    P:EB    SP:FC       BaseAddr:0000    IndirAddr:0000    Implied
0E3A   00   F4   C5    BRK    A:66    X:47    Y:01    P:EB    SP:F9       BaseAddr:0000    IndirAddr:0000    Implied
C5F4   FB   3B   0E    RTI    A:66    X:47    Y:01    P:EB    SP:FC       BaseAddr:0000    IndirAddr:0000    Implied
0E3B   00   F4   C5    BRK    A:66    X:47    Y:01    P:EB    SP:F9       BaseAddr:0000    IndirAddr:0000    Implied
C5F4   FB   3C   0E    RTI    A:66    X:47    Y:01    P:EB    SP:FC       BaseAddr:0000    IndirAddr:0000    Implied
0E3C   00   F4   C5    BRK    A:66    X:47    Y:01    P:EB    SP:F9       BaseAddr:0000    IndirAddr:0000    Implied
C5F4   FB   3D   0E    RTI    A:66    X:47    Y:01    P:EB    SP:FC       BaseAddr:0000    IndirAddr:0000    Implied
0E3D   00   F4   C5    BRK    A:66    X:47    Y:01    P:EB    SP:F9       BaseAddr:0000    IndirAddr:0000    Implied
C5F4   FB   3E   0E    RTI    A:66    X:47    Y:01    P:EB    SP:FC       BaseAddr:0000    IndirAddr:0000    Implied
0E3E   00   F4   C5    BRK    A:66    X:47    Y:01    P:EB    SP:F9       BaseAddr:0000    IndirAddr:0000    Implied
C5F4   FB   3F   0E    RTI    A:66    X:47    Y:01    P:EB    SP:FC       BaseAddr:0000    IndirAddr:0000    Implied
0E3F   00   F4   C5    BRK    A:66    X:47    Y:01    P:EB    SP:F9       BaseAddr:0000    IndirAddr:0000    Implied
C5F4   FB   40   0E    RTI    A:66    X:47    Y:01    P:EB    SP:FC       BaseAddr:0000    IndirAddr:0000    Implied
0E40   00   F4   C5    BRK    A:66    X:47    Y:01    P:EB    SP:F9       BaseAddr:0000    IndirAddr:0000    Implied
C5F4   FB   41   0E    RTI    A:66    X:47    Y:01    P:EB    SP:FC       BaseAddr:0000    IndirAddr:0000    Implied
0E41   00   F4   C5    BRK    A:66    X:47    Y:01    P:EB    SP:F9       BaseAddr:0000    IndirAddr:0000    Implied
C5F4   FB   42   0E    RTI    A:66    X:47    Y:01    P:EB    SP:FC       BaseAddr:0000    IndirAddr:0000    Implied
0E42   00   F4   C5    BRK    A:66    X:47    Y:01    P:EB    SP:F9       BaseAddr:0000    IndirAddr:0000    Implied
C5F4   FB   43   0E    RTI    A:66    X:47    Y:01    P:EB    SP:FC       BaseAddr:0000    IndirAddr:0000    Implied
0E43   00   F4   C5    BRK    A:66    X:47    Y:01    P:EB    SP:F9       BaseAddr:0000    IndirAddr:0000    Implied
C5F4   FB   44   0E    RTI    A:66    X:47    Y:01    P:EB    SP:FC       BaseAddr:0000    IndirAddr:0000    Implied
0E44   00   F4   C5    BRK    A:66    X:47    Y:01    P:EB    SP:F9       BaseAddr:0000    IndirAddr:0000    Implied
C5F4   FB   45   0E    RTI    A:66    X:47    Y:01    P:EB    SP:FC       BaseAddr:0000    IndirAddr:0000    Implied
0E45   00   F4   C5    BRK    A:66    X:47    Y:01    P:EB    SP:F9       BaseAddr:0000    IndirAddr:0000    Implied
C5F4   FB   46   0E    RTI    A:66    X:47    Y:01    P:EB    SP:FC       BaseAddr:0000    IndirAddr:0000    Implied
0E46   00   F4   C5    BRK    A:66    X:47    Y:01    P:EB    SP:F9       BaseAddr:0000    IndirAddr:0000    Implied
C5F4   FB   47   0E    RTI    A:66    X:47    Y:01    P:EB    SP:FC       BaseAddr:0000    IndirAddr:0000    Implied
0E47   00   F4   C5    BRK    A:66    X:47    Y:01    P:EB    SP:F9       BaseAddr:0000    IndirAddr:0000    Implied
C5F4   FB   48   0E    RTI    A:66    X:47    Y:01    P:EB    SP:FC       BaseAddr:0000    IndirAddr:0000    Implied
0E48   00   F4   C5    BRK    A:66    X:47    Y:01    P:EB    SP:F9       BaseAddr:0000    IndirAddr:0000    Implied
C5F4   FB   49   0E    RTI    A:66    X:47    Y:01    P:EB    SP:FC       BaseAddr:0000    IndirAddr:0000    Implied
0E49   00   F4   C5    BRK    A:66    X:47    Y:01    P:EB    SP:F9       BaseAddr:0000    IndirAddr:0000    Implied
C5F4   FB   4A   0E    RTI    A:66    X:47    Y:01    P:EB    SP:FC       BaseAddr:0000    IndirAddr:0000    Implied
0E4A   00   F4   C5    BRK    A:66    X:47    Y:01    P:EB    SP:F9       BaseAddr:0000    IndirAddr:0000    Implied
C5F4   FB   4B   0E    RTI    A:66    X:47    Y:01    P:EB    SP:FC       BaseAddr:0000    IndirAddr:0000    Implied
0E4B   00   F4   C5    BRK    A:66    X:47    Y:01    P:EB    SP:F9       BaseAddr:0000    IndirAddr:0000    Implied
C5F4   FB   4C   0E    RTI    A:66    X:47    Y:01    P:EB    SP:FC       BaseAddr:0000    IndirAddr:0000    Implied
0E4C   00   F4   C5    BRK    A:66    X:47    Y:01    P:EB    SP:F9       BaseAddr:0000    IndirAddr:0000    Implied
C5F4   FB   4D   0E    RTI    A:66    X:47    Y:01    P:EB    SP:FC       BaseAddr:0000    IndirAddr:0000    Implied
0E4D   00   F4   C5    BRK    A:66    X:47    Y:01    P:EB    SP:F9       BaseAddr:0000    IndirAddr:0000    Implied
C5F4   FB   4E   0E    RTI    A:66    X:47    Y:01    P:EB    SP:FC       BaseAddr:0000    IndirAddr:0000    Implied
0E4E   00   F4   C5    BRK    A:66    X:47    Y:01    P:EB    SP:F9       BaseAddr:0000    IndirAddr:0000    Implied
C5F4   FB   4F   0E    RTI    A:66    X:47    Y:01    P:EB    SP:FC       BaseAddr:0000    IndirAddr:0000    Implied
0E4F   00   F4   C5    BRK    A:66    X:47    Y:01    P:EB    SP:F9       BaseAddr:0000    IndirAddr:0000    Implied
C5F4   FB   50   0E    RTI    A:66    X:47    Y:01    P:EB    SP:FC       BaseAddr:0000    IndirAddr:0000    Implied
0E50   00   F4   C5    BRK    A:66    X:47    Y:01    P:EB    SP:F9       BaseAddr:0000    IndirAddr:0000    Implied
C5F4   FB   51   0E    RTI    A:66    X:47    Y:01    P:EB    SP:FC       BaseAddr:0000    IndirAddr:0000    Implied
0E51   00   F4   C5    BRK    A:66    X:47    Y:01    P:EB    SP:F9       BaseAddr:0000    IndirAddr:0000    Implied
C5F4   FB   52   0E    RTI    A:66    X:47    Y:01    P:EB    SP:FC       BaseAddr:0000    IndirAddr:0000    Implied
0E52   00   F4   C5    BRK    A:66    X:47    Y:01    P:EB    SP:F9       BaseAddr:0000    IndirAddr:0000    Implied
C5F4   FB   53   0E    RTI    A:66    X:47    Y:01    P:EB    SP:FC       BaseAddr:0000    IndirAddr:0000    Implied
0E53   00   F4   C5    BRK    A:66    X:47    Y:01    P:EB    SP:F9       BaseAddr:0000    IndirAddr:0000    Implied
C5F4   FB   54   0E    RTI    A:66    X:47    Y:01    P:EB    SP:FC       BaseAddr:0000    IndirAddr:0000    Implied
0E54   00   F4   C5    BRK    A:66    X:47    Y:01    P:EB    SP:F9       BaseAddr:0000    IndirAddr:0000    Implied
C5F4   FB   55   0E    RTI    A:66    X:47    Y:01    P:EB    SP:FC       BaseAddr:0000    IndirAddr:0000    Implied
0E55   00   F4   C5    BRK    A:66    X:47    Y:01    P:EB    SP:F9       BaseAddr:0000    IndirAddr:0000    Implied
C5F4   FB   56   0E    RTI    A:66    X:47    Y:01    P:EB    SP:FC       BaseAddr:0000    IndirAddr:0000    Implied
0E56   00   F4   C5    BRK    A:66    X:47    Y:01    P:EB    SP:F9       BaseAddr:0000    IndirAddr:0000    Implied
C5F4   FB   57   0E    RTI    A:66    X:47    Y:01    P:EB    SP:FC       BaseAddr:0000    IndirAddr:0000    Implied
0E57   00   F4   C5    BRK    A:66    X:47    Y:01    P:EB    SP:F9       BaseAddr:0000    IndirAddr:0000    Implied
C5F4   FB   58   0E    RTI    A:66    X:47    Y:01    P:EB    SP:FC       BaseAddr:0000    IndirAddr:0000    Implied
0E58   00   F4   C5    BRK    A:66    X:47    Y:01    P:EB    SP:F9       BaseAddr:0000    IndirAddr:0000    Implied
C5F4   FB   59   0E    RTI    A:66    X:47    Y:01    P:EB    SP:FC       BaseAddr:0000    IndirAddr:0000    Implied
0E59   00   F4   C5    BRK    A:66    X:47    Y:01    P:EB    SP:F9       BaseAddr:0000    IndirAddr:0000    Implied
C5F4   FB   5A   0E    RTI    A:66    X:47    Y:01    P:EB    SP:FC       BaseAddr:0000    IndirAddr:0000    Implied
0E5A   00   F4   C5    BRK    A:66    X:47    Y:01    P:EB    SP:F9       BaseAddr:0000    IndirAddr:0000    Implied
C5F4   FB   5B   0E    RTI    A:66    X:47    Y:01    P:EB    SP:FC       BaseAddr:0000    IndirAddr:0000    Implied
0E5B   00   F4   C5    BRK    A:66    X:47    Y:01    P:EB    SP:F9       BaseAddr:0000    IndirAddr:0000    Implied
C5F4   FB   5C   0E    RTI    A:66    X:47    Y:01    P:EB    SP:FC       BaseAddr:0000    IndirAddr:0000    Implied
0E5C   00   F4   C5    BRK    A:66    X:47    Y:01    P:EB    SP:F9       BaseAddr:0000    IndirAddr:0000    Implied
C5F4   FB   5D   0E    RTI    A:66    X:47    Y:01    P:EB    SP:FC       BaseAddr:0000    IndirAddr:0000    Implied
0E5D   00   F4   C5    BRK    A:66    X:47    Y:01    P:EB    SP:F9       BaseAddr:0000    IndirAddr:0000    Implied
C5F4   FB   5E   0E    RTI    A:66    X:47    Y:01    P:EB    SP:FC       BaseAddr:0000    IndirAddr:0000    Implied
0E5E   00   F4   C5    BRK    A:66    X:47    Y:01    P:EB    SP:F9       BaseAddr:0000    IndirAddr:0000    Implied
C5F4   FB   5F   0E    RTI    A:66    X:47    Y:01    P:EB    SP:FC       BaseAddr:0000    IndirAddr:0000    Implied
0E5F   00   F4   C5    BRK    A:66    X:47    Y:01    P:EB    SP:F9       BaseAddr:0000    IndirAddr:0000    Implied
C5F4   FB   60   0E    RTI    A:66    X:47    Y:01    P:EB    SP:FC       BaseAddr:0000    IndirAddr:0000    Implied
0E60   00   F4   C5    BRK    A:66    X:47    Y:01    P:EB    SP:F9       BaseAddr:0000    IndirAddr:0000    Implied
C5F4   FB   61   0E    RTI    A:66    X:47    Y:01    P:EB    SP:FC       BaseAddr:0000    IndirAddr:0000    Implied
0E61   00   F4   C5    BRK    A:66    X:47    Y:01    P:EB    SP:F9       BaseAddr:0000    IndirAddr:0000    Implied
C5F4   FB   62   0E    RTI    A:66    X:47    Y:01    P:EB    SP:FC       BaseAddr:0000    IndirAddr:0000    Implied
0E62   00   F4   C5    BRK    A:66    X:47    Y:01    P:EB    SP:F9       BaseAddr:0000    IndirAddr:0000    Implied
C5F4   FB   63   0E    RTI    A:66    X:47    Y:01    P:EB    SP:FC       BaseAddr:0000    IndirAddr:0000    Implied
0E63   00   F4   C5    BRK    A:66    X:47    Y:01    P:EB    SP:F9       BaseAddr:0000    IndirAddr:0000    Implied
C5F4   FB   64   0E    RTI    A:66    X:47    Y:01    P:EB    SP:FC       BaseAddr:0000    IndirAddr:0000    Implied
0E64   00   F4   C5    BRK    A:66    X:47    Y:01    P:EB    SP:F9       BaseAddr:0000    IndirAddr:0000    Implied
C5F4   FB   65   0E    RTI    A:66    X:47    Y:01    P:EB    SP:FC       BaseAddr:0000    IndirAddr:0000    Implied
0E65   00   F4   C5    BRK    A:66    X:47    Y:01    P:EB    SP:F9       BaseAddr:0000    IndirAddr:0000    Implied
C5F4   FB   66   0E    RTI    A:66    X:47    Y:01    P:EB    SP:FC       BaseAddr:0000    IndirAddr:0000    Implied
0E66   00   F4   C5    BRK    A:66    X:47    Y:01    P:EB    SP:F9       BaseAddr:0000    IndirAddr:0000    Implied
C5F4   FB   67   0E    RTI    A:66    X:47    Y:01    P:EB    SP:FC       BaseAddr:0000    IndirAddr:0000    Implied
0E67   00   F4   C5    BRK    A:66    X:47    Y:01    P:EB    SP:F9       BaseAddr:0000    IndirAddr:0000    Implied
C5F4   FB   68   0E    RTI    A:66    X:47    Y:01    P:EB    SP:FC       BaseAddr:0000    IndirAddr:0000    Implied
0E68   00   F4   C5    BRK    A:66    X:47    Y:01    P:EB    SP:F9       BaseAddr:0000    IndirAddr:0000    Implied
C5F4   FB   69   0E    RTI    A:66    X:47    Y:01    P:EB    SP:FC       BaseAddr:0000    IndirAddr:0000    Implied
0E69   00   F4   C5    BRK    A:66    X:47    Y:01    P:EB    SP:F9       BaseAddr:0000    IndirAddr:0000    Implied
C5F4   FB   6A   0E    RTI    A:66    X:47    Y:01    P:EB    SP:FC       BaseAddr:0000    IndirAddr:0000    Implied
0E6A   00   F4   C5    BRK    A:66    X:47    Y:01    P:EB    SP:F9       BaseAddr:0000    IndirAddr:0000    Implied
C5F4   FB   6B   0E    RTI    A:66    X:47    Y:01    P:EB    SP:FC       BaseAddr:0000    IndirAddr:0000    Implied
0E6B   00   F4   C5    BRK    A:66    X:47    Y:01    P:EB    SP:F9       BaseAddr:0000    IndirAddr:0000    Implied
C5F4   FB   6C   0E    RTI    A:66    X:47    Y:01    P:EB    SP:FC       BaseAddr:0000    IndirAddr:0000    Implied
0E6C   00   F4   C5    BRK    A:66    X:47    Y:01    P:EB    SP:F9       BaseAddr:0000    IndirAddr:0000    Implied
C5F4   FB   6D   0E    RTI    A:66    X:47    Y:01    P:EB    SP:FC       BaseAddr:0000    IndirAddr:0000    Implied
0E6D   00   F4   C5    BRK    A:66    X:47    Y:01    P:EB    SP:F9       BaseAddr:0000    IndirAddr:0000    Implied
C5F4   FB   6E   0E    RTI    A:66    X:47    Y:01    P:EB    SP:FC       BaseAddr:0000    IndirAddr:0000    Implied
0E6E   00   F4   C5    BRK    A:66    X:47    Y:01    P:EB    SP:F9       BaseAddr:0000    IndirAddr:0000    Implied
C5F4   FB   6F   0E    RTI    A:66    X:47    Y:01    P:EB    SP:FC       BaseAddr:0000    IndirAddr:0000    Implied
0E6F   00   F4   C5    BRK    A:66    X:47    Y:01    P:EB    SP:F9       BaseAddr:0000    IndirAddr:0000    Implied
C5F4   FB   70   0E    RTI    A:66    X:47    Y:01    P:EB    SP:FC       BaseAddr:0000    IndirAddr:0000    Implied
0E70   00   F4   C5    BRK    A:66    X:47    Y:01    P:EB    SP:F9       BaseAddr:0000    IndirAddr:0000    Implied
C5F4   FB   71   0E    RTI    A:66    X:47    Y:01    P:EB    SP:FC       BaseAddr:0000    IndirAddr:0000    Implied
0E71   00   F4   C5    BRK    A:66    X:47    Y:01    P:EB    SP:F9       BaseAddr:0000    IndirAddr:0000    Implied
C5F4   FB   72   0E    RTI    A:66    X:47    Y:01    P:EB    SP:FC       BaseAddr:0000    IndirAddr:0000    Implied
0E72   00   F4   C5    BRK    A:66    X:47    Y:01    P:EB    SP:F9       BaseAddr:0000    IndirAddr:0000    Implied
C5F4   FB   73   0E    RTI    A:66    X:47    Y:01    P:EB    SP:FC       BaseAddr:0000    IndirAddr:0000    Implied
0E73   00   F4   C5    BRK    A:66    X:47    Y:01    P:EB    SP:F9       BaseAddr:0000    IndirAddr:0000    Implied
C5F4   FB   74   0E    RTI    A:66    X:47    Y:01    P:EB    SP:FC       BaseAddr:0000    IndirAddr:0000    Implied
0E74   00   F4   C5    BRK    A:66    X:47    Y:01    P:EB    SP:F9       BaseAddr:0000    IndirAddr:0000    Implied
C5F4   FB   75   0E    RTI    A:66    X:47    Y:01    P:EB    SP:FC       BaseAddr:0000    IndirAddr:0000    Implied
0E75   00   F4   C5    BRK    A:66    X:47    Y:01    P:EB    SP:F9       BaseAddr:0000    IndirAddr:0000    Implied
C5F4   FB   76   0E    RTI    A:66    X:47    Y:01    P:EB    SP:FC       BaseAddr:0000    IndirAddr:0000    Implied
0E76   00   F4   C5    BRK    A:66    X:47    Y:01    P:EB    SP:F9       BaseAddr:0000    IndirAddr:0000    Implied
C5F4   FB   77   0E    RTI    A:66    X:47    Y:01    P:EB    SP:FC       BaseAddr:0000    IndirAddr:0000    Implied
0E77   00   F4   C5    BRK    A:66    X:47    Y:01    P:EB    SP:F9       BaseAddr:0000    IndirAddr:0000    Implied
C5F4   FB   78   0E    RTI    A:66    X:47    Y:01    P:EB    SP:FC       BaseAddr:0000    IndirAddr:0000    Implied
0E78   00   F4   C5    BRK    A:66    X:47    Y:01    P:EB    SP:F9       BaseAddr:0000    IndirAddr:0000    Implied
C5F4   FB   79   0E    RTI    A:66    X:47    Y:01    P:EB    SP:FC       BaseAddr:0000    IndirAddr:0000    Implied
0E79   00   F4   C5    BRK    A:66    X:47    Y:01    P:EB    SP:F9       BaseAddr:0000    IndirAddr:0000    Implied
C5F4   FB   7A   0E    RTI    A:66    X:47    Y:01    P:EB    SP:FC       BaseAddr:0000    IndirAddr:0000    Implied
0E7A   00   F4   C5    BRK    A:66    X:47    Y:01    P:EB    SP:F9       BaseAddr:0000    IndirAddr:0000    Implied
C5F4   FB   7B   0E    RTI    A:66    X:47    Y:01    P:EB    SP:FC       BaseAddr:0000    IndirAddr:0000    Implied
0E7B   00   F4   C5    BRK    A:66    X:47    Y:01    P:EB    SP:F9       BaseAddr:0000    IndirAddr:0000    Implied
C5F4   FB   7C   0E    RTI    A:66    X:47    Y:01    P:EB    SP:FC       BaseAddr:0000    IndirAddr:0000    Implied
0E7C   00   F4   C5    BRK    A:66    X:47    Y:01    P:EB    SP:F9       BaseAddr:0000    IndirAddr:0000    Implied
C5F4   FB   7D   0E    RTI    A:66    X:47    Y:01    P:EB    SP:FC       BaseAddr:0000    IndirAddr:0000    Implied
0E7D   00   F4   C5    BRK    A:66    X:47    Y:01    P:EB    SP:F9       BaseAddr:0000    IndirAddr:0000    Implied
C5F4   FB   7E   0E    RTI    A:66    X:47    Y:01    P:EB    SP:FC       BaseAddr:0000    IndirAddr:0000    Implied
0E7E   00   F4   C5    BRK    A:66    X:47    Y:01    P:EB    SP:F9       BaseAddr:0000    IndirAddr:0000    Implied
C5F4   FB   7F   0E    RTI    A:66    X:47    Y:01    P:EB    SP:FC       BaseAddr:0000    IndirAddr:0000    Implied
0E7F   00   F4   C5    BRK    A:66    X:47    Y:01    P:EB    SP:F9       BaseAddr:0000    IndirAddr:0000    Implied
C5F4   FB   80   0E    RTI    A:66    X:47    Y:01    P:EB    SP:FC       BaseAddr:0000    IndirAddr:0000    Implied
0E80   00   F4   C5    BRK    A:66    X:47    Y:01    P:EB    SP:F9       BaseAddr:0000    IndirAddr:0000    Implied
C5F4   FB   81   0E    RTI    A:66    X:47    Y:01    P:EB    SP:FC       BaseAddr:0000    IndirAddr:0000    Implied
0E81   00   F4   C5    BRK    A:66    X:47    Y:01    P:EB    SP:F9       BaseAddr:0000    IndirAddr:0000    Implied
C5F4   FB   82   0E    RTI    A:66    X:47    Y:01    P:EB    SP:FC       BaseAddr:0000    IndirAddr:0000    Implied
0E82   00   F4   C5    BRK    A:66    X:47    Y:01    P:EB    SP:F9       BaseAddr:0000    IndirAddr:0000    Implied
C5F4   FB   83   0E    RTI    A:66    X:47    Y:01    P:EB    SP:FC       BaseAddr:0000    IndirAddr:0000    Implied
0E83   00   F4   C5    BRK    A:66    X:47    Y:01    P:EB    SP:F9       BaseAddr:0000    IndirAddr:0000    Implied
C5F4   FB   84   0E    RTI    A:66    X:47    Y:01    P:EB    SP:FC       BaseAddr:0000    IndirAddr:0000    Implied
0E84   00   F4   C5    BRK    A:66    X:47    Y:01    P:EB    SP:F9       BaseAddr:0000    IndirAddr:0000    Implied
C5F4   FB   85   0E    RTI    A:66    X:47    Y:01    P:EB    SP:FC       BaseAddr:0000    IndirAddr:0000    Implied
0E85   00   F4   C5    BRK    A:66    X:47    Y:01    P:EB    SP:F9       BaseAddr:0000    IndirAddr:0000    Implied
C5F4   FB   86   0E    RTI    A:66    X:47    Y:01    P:EB    SP:FC       BaseAddr:0000    IndirAddr:0000    Implied
0E86   00   F4   C5    BRK    A:66    X:47    Y:01    P:EB    SP:F9       BaseAddr:0000    IndirAddr:0000    Implied
C5F4   FB   87   0E    RTI    A:66    X:47    Y:01    P:EB    SP:FC       BaseAddr:0000    IndirAddr:0000    Implied
0E87   00   F4   C5    BRK    A:66    X:47    Y:01    P:EB    SP:F9       BaseAddr:0000    IndirAddr:0000    Implied
C5F4   FB   88   0E    RTI    A:66    X:47    Y:01    P:EB    SP:FC       BaseAddr:0000    IndirAddr:0000    Implied
0E88   00   F4   C5    BRK    A:66    X:47    Y:01    P:EB    SP:F9       BaseAddr:0000    IndirAddr:0000    Implied
C5F4   FB   89   0E    RTI    A:66    X:47    Y:01    P:EB    SP:FC       BaseAddr:0000    IndirAddr:0000    Implied
0E89   00   F4   C5    BRK    A:66    X:47    Y:01    P:EB    SP:F9       BaseAddr:0000    IndirAddr:0000    Implied
C5F4   FB   8A   0E    RTI    A:66    X:47    Y:01    P:EB    SP:FC       BaseAddr:0000    IndirAddr:0000    Implied
0E8A   00   F4   C5    BRK    A:66    X:47    Y:01    P:EB    SP:F9       BaseAddr:0000    IndirAddr:0000    Implied
C5F4   FB   8B   0E    RTI    A:66    X:47    Y:01    P:EB    SP:FC       BaseAddr:0000    IndirAddr:0000    Implied
0E8B   00   F4   C5    BRK    A:66    X:47    Y:01    P:EB    SP:F9       BaseAddr:0000    IndirAddr:0000    Implied
C5F4   FB   8C   0E    RTI    A:66    X:47    Y:01    P:EB    SP:FC       BaseAddr:0000    IndirAddr:0000    Implied
0E8C   00   F4   C5    BRK    A:66    X:47    Y:01    P:EB    SP:F9       BaseAddr:0000    IndirAddr:0000    Implied
C5F4   FB   8D   0E    RTI    A:66    X:47    Y:01    P:EB    SP:FC       BaseAddr:0000    IndirAddr:0000    Implied
0E8D   00   F4   C5    BRK    A:66    X:47    Y:01    P:EB    SP:F9       BaseAddr:0000    IndirAddr:0000    Implied
C5F4   FB   8E   0E    RTI    A:66    X:47    Y:01    P:EB    SP:FC       BaseAddr:0000    IndirAddr:0000    Implied
0E8E   00   F4   C5    BRK    A:66    X:47    Y:01    P:EB    SP:F9       BaseAddr:0000    IndirAddr:0000    Implied
C5F4   FB   8F   0E    RTI    A:66    X:47    Y:01    P:EB    SP:FC       BaseAddr:0000    IndirAddr:0000    Implied
0E8F   00   F4   C5    BRK    A:66    X:47    Y:01    P:EB    SP:F9       BaseAddr:0000    IndirAddr:0000    Implied
C5F4   FB   90   0E    RTI    A:66    X:47    Y:01    P:EB    SP:FC       BaseAddr:0000    IndirAddr:0000    Implied
0E90   00   F4   C5    BRK    A:66    X:47    Y:01    P:EB    SP:F9       BaseAddr:0000    IndirAddr:0000    Implied
C5F4   FB   91   0E    RTI    A:66    X:47    Y:01    P:EB    SP:FC       BaseAddr:0000    IndirAddr:0000    Implied
0E91   00   F4   C5    BRK    A:66    X:47    Y:01    P:EB    SP:F9       BaseAddr:0000    IndirAddr:0000    Implied
C5F4   FB   92   0E    RTI    A:66    X:47    Y:01    P:EB    SP:FC       BaseAddr:0000    IndirAddr:0000    Implied
0E92   00   F4   C5    BRK    A:66    X:47    Y:01    P:EB    SP:F9       BaseAddr:0000    IndirAddr:0000    Implied
C5F4   FB   93   0E    RTI    A:66    X:47    Y:01    P:EB    SP:FC       BaseAddr:0000    IndirAddr:0000    Implied
0E93   00   F4   C5    BRK    A:66    X:47    Y:01    P:EB    SP:F9       BaseAddr:0000    IndirAddr:0000    Implied
C5F4   FB   94   0E    RTI    A:66    X:47    Y:01    P:EB    SP:FC       BaseAddr:0000    IndirAddr:0000    Implied
0E94   00   F4   C5    BRK    A:66    X:47    Y:01    P:EB    SP:F9       BaseAddr:0000    IndirAddr:0000    Implied
C5F4   FB   95   0E    RTI    A:66    X:47    Y:01    P:EB    SP:FC       BaseAddr:0000    IndirAddr:0000    Implied
0E95   00   F4   C5    BRK    A:66    X:47    Y:01    P:EB    SP:F9       BaseAddr:0000    IndirAddr:0000    Implied
C5F4   FB   96   0E    RTI    A:66    X:47    Y:01    P:EB    SP:FC       BaseAddr:0000    IndirAddr:0000    Implied
0E96   00   F4   C5    BRK    A:66    X:47    Y:01    P:EB    SP:F9       BaseAddr:0000    IndirAddr:0000    Implied
C5F4   FB   97   0E    RTI    A:66    X:47    Y:01    P:EB    SP:FC       BaseAddr:0000    IndirAddr:0000    Implied
0E97   00   F4   C5    BRK    A:66    X:47    Y:01    P:EB    SP:F9       BaseAddr:0000    IndirAddr:0000    Implied
C5F4   FB   98   0E    RTI    A:66    X:47    Y:01    P:EB    SP:FC       BaseAddr:0000    IndirAddr:0000    Implied
0E98   00   F4   C5    BRK    A:66    X:47    Y:01    P:EB    SP:F9       BaseAddr:0000    IndirAddr:0000    Implied
C5F4   FB   99   0E    RTI    A:66    X:47    Y:01    P:EB    SP:FC       BaseAddr:0000    IndirAddr:0000    Implied
0E99   00   F4   C5    BRK    A:66    X:47    Y:01    P:EB    SP:F9       BaseAddr:0000    IndirAddr:0000    Implied
C5F4   FB   9A   0E    RTI    A:66    X:47    Y:01    P:EB    SP:FC       BaseAddr:0000    IndirAddr:0000    Implied
0E9A   00   F4   C5    BRK    A:66    X:47    Y:01    P:EB    SP:F9       BaseAddr:0000    IndirAddr:0000    Implied
C5F4   FB   9B   0E    RTI    A:66    X:47    Y:01    P:EB    SP:FC       BaseAddr:0000    IndirAddr:0000    Implied
0E9B   00   F4   C5    BRK    A:66    X:47    Y:01    P:EB    SP:F9       BaseAddr:0000    IndirAddr:0000    Implied
C5F4   FB   9C   0E    RTI    A:66    X:47    Y:01    P:EB    SP:FC       BaseAddr:0000    IndirAddr:0000    Implied
0E9C   00   F4   C5    BRK    A:66    X:47    Y:01    P:EB    SP:F9       BaseAddr:0000    IndirAddr:0000    Implied
C5F4   FB   9D   0E    RTI    A:66    X:47    Y:01    P:EB    SP:FC       BaseAddr:0000    IndirAddr:0000    Implied
0E9D   00   F4   C5    BRK    A:66    X:47    Y:01    P:EB    SP:F9       BaseAddr:0000    IndirAddr:0000    Implied
C5F4   FB   9E   0E    RTI    A:66    X:47    Y:01    P:EB    SP:FC       BaseAddr:0000    IndirAddr:0000    Implied
0E9E   00   F4   C5    BRK    A:66    X:47    Y:01    P:EB    SP:F9       BaseAddr:0000    IndirAddr:0000    Implied
C5F4   FB   9F   0E    RTI    A:66    X:47    Y:01    P:EB    SP:FC       BaseAddr:0000    IndirAddr:0000    Implied
0E9F   00   F4   C5    BRK    A:66    X:47    Y:01    P:EB    SP:F9       BaseAddr:0000    IndirAddr:0000    Implied
C5F4   FB   A0   0E    RTI    A:66    X:47    Y:01    P:EB    SP:FC       BaseAddr:0000    IndirAddr:0000    Implied
0EA0   00   F4   C5    BRK    A:66    X:47    Y:01    P:EB    SP:F9       BaseAddr:0000    IndirAddr:0000    Implied
C5F4   FB   A1   0E    RTI    A:66    X:47    Y:01    P:EB    SP:FC       BaseAddr:0000    IndirAddr:0000    Implied
0EA1   00   F4   C5    BRK    A:66    X:47    Y:01    P:EB    SP:F9       BaseAddr:0000    IndirAddr:0000    Implied
C5F4   FB   A2   0E    RTI    A:66    X:47    Y:01    P:EB    SP:FC       BaseAddr:0000    IndirAddr:0000    Implied
0EA2   00   F4   C5    BRK    A:66    X:47    Y:01    P:EB    SP:F9       BaseAddr:0000    IndirAddr:0000    Implied
C5F4   FB   A3   0E    RTI    A:66    X:47    Y:01    P:EB    SP:FC       BaseAddr:0000    IndirAddr:0000    Implied
0EA3   00   F4   C5    BRK    A:66    X:47    Y:01    P:EB    SP:F9       BaseAddr:0000    IndirAddr:0000    Implied
C5F4   FB   A4   0E    RTI    A:66    X:47    Y:01    P:EB    SP:FC       BaseAddr:0000    IndirAddr:0000    Implied
0EA4   00   F4   C5    BRK    A:66    X:47    Y:01    P:EB    SP:F9       BaseAddr:0000    IndirAddr:0000    Implied
C5F4   FB   A5   0E    RTI    A:66    X:47    Y:01    P:EB    SP:FC       BaseAddr:0000    IndirAddr:0000    Implied
0EA5   00   F4   C5    BRK    A:66    X:47    Y:01    P:EB    SP:F9       BaseAddr:0000    IndirAddr:0000    Implied
C5F4   FB   A6   0E    RTI    A:66    X:47    Y:01    P:EB    SP:FC       BaseAddr:0000    IndirAddr:0000    Implied
0EA6   00   F4   C5    BRK    A:66    X:47    Y:01    P:EB    SP:F9       BaseAddr:0000    IndirAddr:0000    Implied
C5F4   FB   A7   0E    RTI    A:66    X:47    Y:01    P:EB    SP:FC       BaseAddr:0000    IndirAddr:0000    Implied
0EA7   00   F4   C5    BRK    A:66    X:47    Y:01    P:EB    SP:F9       BaseAddr:0000    IndirAddr:0000    Implied
C5F4   FB   A8   0E    RTI    A:66    X:47    Y:01    P:EB    SP:FC       BaseAddr:0000    IndirAddr:0000    Implied
0EA8   00   F4   C5    BRK    A:66    X:47    Y:01    P:EB    SP:F9       BaseAddr:0000    IndirAddr:0000    Implied
C5F4   FB   A9   0E    RTI    A:66    X:47    Y:01    P:EB    SP:FC       BaseAddr:0000    IndirAddr:0000    Implied
0EA9   00   F4   C5    BRK    A:66    X:47    Y:01    P:EB    SP:F9       BaseAddr:0000    IndirAddr:0000    Implied
C5F4   FB   AA   0E    RTI    A:66    X:47    Y:01    P:EB    SP:FC       BaseAddr:0000    IndirAddr:0000    Implied
0EAA   00   F4   C5    BRK    A:66    X:47    Y:01    P:EB    SP:F9       BaseAddr:0000    IndirAddr:0000    Implied
C5F4   FB   AB   0E    RTI    A:66    X:47    Y:01    P:EB    SP:FC       BaseAddr:0000    IndirAddr:0000    Implied
0EAB   00   F4   C5    BRK    A:66    X:47    Y:01    P:EB    SP:F9       BaseAddr:0000    IndirAddr:0000    Implied
C5F4   FB   AC   0E    RTI    A:66    X:47    Y:01    P:EB    SP:FC       BaseAddr:0000    IndirAddr:0000    Implied
0EAC   00   F4   C5    BRK    A:66    X:47    Y:01    P:EB    SP:F9       BaseAddr:0000    IndirAddr:0000    Implied
C5F4   FB   AD   0E    RTI    A:66    X:47    Y:01    P:EB    SP:FC       BaseAddr:0000    IndirAddr:0000    Implied
0EAD   00   F4   C5    BRK    A:66    X:47    Y:01    P:EB    SP:F9       BaseAddr:0000    IndirAddr:0000    Implied
C5F4   FB   AE   0E    RTI    A:66    X:47    Y:01    P:EB    SP:FC       BaseAddr:0000    IndirAddr:0000    Implied
0EAE   00   F4   C5    BRK    A:66    X:47    Y:01    P:EB    SP:F9       BaseAddr:0000    IndirAddr:0000    Implied
C5F4   FB   AF   0E    RTI    A:66    X:47    Y:01    P:EB    SP:FC       BaseAddr:0000    IndirAddr:0000    Implied
0EAF   00   F4   C5    BRK    A:66    X:47    Y:01    P:EB    SP:F9       BaseAddr:0000    IndirAddr:0000    Implied
C5F4   FB   B0   0E    RTI    A:66    X:47    Y:01    P:EB    SP:FC       BaseAddr:0000    IndirAddr:0000    Implied
0EB0   00   F4   C5    BRK    A:66    X:47    Y:01    P:EB    SP:F9       BaseAddr:0000    IndirAddr:0000    Implied
C5F4   FB   B1   0E    RTI    A:66    X:47    Y:01    P:EB    SP:FC       BaseAddr:0000    IndirAddr:0000    Implied
0EB1   00   F4   C5    BRK    A:66    X:47    Y:01    P:EB    SP:F9       BaseAddr:0000    IndirAddr:0000    Implied
C5F4   FB   B2   0E    RTI    A:66    X:47    Y:01    P:EB    SP:FC       BaseAddr:0000    IndirAddr:0000    Implied
0EB2   00   F4   C5    BRK    A:66    X:47    Y:01    P:EB    SP:F9       BaseAddr:0000    IndirAddr:0000    Implied
C5F4   FB   B3   0E    RTI    A:66    X:47    Y:01    P:EB    SP:FC       BaseAddr:0000    IndirAddr:0000    Implied
0EB3   00   F4   C5    BRK    A:66    X:47    Y:01    P:EB    SP:F9       BaseAddr:0000    IndirAddr:0000    Implied
C5F4   FB   B4   0E    RTI    A:66    X:47    Y:01    P:EB    SP:FC       BaseAddr:0000    IndirAddr:0000    Implied
0EB4   00   F4   C5    BRK    A:66    X:47    Y:01    P:EB    SP:F9       BaseAddr:0000    IndirAddr:0000    Implied
C5F4   FB   B5   0E    RTI    A:66    X:47    Y:01    P:EB    SP:FC       BaseAddr:0000    IndirAddr:0000    Implied
0EB5   00   F4   C5    BRK    A:66    X:47    Y:01    P:EB    SP:F9       BaseAddr:0000    IndirAddr:0000    Implied
C5F4   FB   B6   0E    RTI    A:66    X:47    Y:01    P:EB    SP:FC       BaseAddr:0000    IndirAddr:0000    Implied
0EB6   00   F4   C5    BRK    A:66    X:47    Y:01    P:EB    SP:F9       BaseAddr:0000    IndirAddr:0000    Implied
C5F4   FB   B7   0E    RTI    A:66    X:47    Y:01    P:EB    SP:FC       BaseAddr:0000    IndirAddr:0000    Implied
0EB7   00   F4   C5    BRK    A:66    X:47    Y:01    P:EB    SP:F9       BaseAddr:0000    IndirAddr:0000    Implied
C5F4   FB   B8   0E    RTI    A:66    X:47    Y:01    P:EB    SP:FC       BaseAddr:0000    IndirAddr:0000    Implied
0EB8   00   F4   C5    BRK    A:66    X:47    Y:01    P:EB    SP:F9       BaseAddr:0000    IndirAddr:0000    Implied
C5F4   FB   B9   0E    RTI    A:66    X:47    Y:01    P:EB    SP:FC       BaseAddr:0000    IndirAddr:0000    Implied
0EB9   00   F4   C5    BRK    A:66    X:47    Y:01    P:EB    SP:F9       BaseAddr:0000    IndirAddr:0000    Implied
C5F4   FB   BA   0E    RTI    A:66    X:47    Y:01    P:EB    SP:FC       BaseAddr:0000    IndirAddr:0000    Implied
0EBA   00   F4   C5    BRK    A:66    X:47    Y:01    P:EB    SP:F9       BaseAddr:0000    IndirAddr:0000    Implied
C5F4   FB   BB   0E    RTI    A:66    X:47    Y:01    P:EB    SP:FC       BaseAddr:0000    IndirAddr:0000    Implied
0EBB   00   F4   C5    BRK    A:66    X:47    Y:01    P:EB    SP:F9       BaseAddr:0000    IndirAddr:0000    Implied
C5F4   FB   BC   0E    RTI    A:66    X:47    Y:01    P:EB    SP:FC       BaseAddr:0000    IndirAddr:0000    Implied
0EBC   00   F4   C5    BRK    A:66    X:47    Y:01    P:EB    SP:F9       BaseAddr:0000    IndirAddr:0000    Implied
C5F4   FB   BD   0E    RTI    A:66    X:47    Y:01    P:EB    SP:FC       BaseAddr:0000    IndirAddr:0000    Implied
0EBD   00   F4   C5    BRK    A:66    X:47    Y:01    P:EB    SP:F9       BaseAddr:0000    IndirAddr:0000    Implied
C5F4   FB   BE   0E    RTI    A:66    X:47    Y:01    P:EB    SP:FC       BaseAddr:0000    IndirAddr:0000    Implied
0EBE   00   F4   C5    BRK    A:66    X:47    Y:01    P:EB    SP:F9       BaseAddr:0000    IndirAddr:0000    Implied
C5F4   FB   BF   0E    RTI    A:66    X:47    Y:01    P:EB    SP:FC       BaseAddr:0000    IndirAddr:0000    Implied
0EBF   00   F4   C5    BRK    A:66    X:47    Y:01    P:EB    SP:F9       BaseAddr:0000    IndirAddr:0000    Implied
C5F4   FB   C0   0E    RTI    A:66    X:47    Y:01    P:EB    SP:FC       BaseAddr:0000    IndirAddr:0000    Implied
0EC0   00   F4   C5    BRK    A:66    X:47    Y:01    P:EB    SP:F9       BaseAddr:0000    IndirAddr:0000    Implied
C5F4   FB   C1   0E    RTI    A:66    X:47    Y:01    P:EB    SP:FC       BaseAddr:0000    IndirAddr:0000    Implied
0EC1   00   F4   C5    BRK    A:66    X:47    Y:01    P:EB    SP:F9       BaseAddr:0000    IndirAddr:0000    Implied
C5F4   FB   C2   0E    RTI    A:66    X:47    Y:01    P:EB    SP:FC       BaseAddr:0000    IndirAddr:0000    Implied
0EC2   00   F4   C5    BRK    A:66    X:47    Y:01    P:EB    SP:F9       BaseAddr:0000    IndirAddr:0000    Implied
C5F4   FB   C3   0E    RTI    A:66    X:47    Y:01    P:EB    SP:FC       BaseAddr:0000    IndirAddr:0000    Implied
0EC3   00   F4   C5    BRK    A:66    X:47    Y:01    P:EB    SP:F9       BaseAddr:0000    IndirAddr:0000    Implied
C5F4   FB   C4   0E    RTI    A:66    X:47    Y:01    P:EB    SP:FC       BaseAddr:0000    IndirAddr:0000    Implied
0EC4   00   F4   C5    BRK    A:66    X:47    Y:01    P:EB    SP:F9       BaseAddr:0000    IndirAddr:0000    Implied
C5F4   FB   C5   0E    RTI    A:66    X:47    Y:01    P:EB    SP:FC       BaseAddr:0000    IndirAddr:0000    Implied
0EC5   00   F4   C5    BRK    A:66    X:47    Y:01    P:EB    SP:F9       BaseAddr:0000    IndirAddr:0000    Implied
C5F4   FB   C6   0E    RTI    A:66    X:47    Y:01    P:EB    SP:FC       BaseAddr:0000    IndirAddr:0000    Implied
0EC6   00   F4   C5    BRK    A:66    X:47    Y:01    P:EB    SP:F9       BaseAddr:0000    IndirAddr:0000    Implied
C5F4   FB   C7   0E    RTI    A:66    X:47    Y:01    P:EB    SP:FC       BaseAddr:0000    IndirAddr:0000    Implied
0EC7   00   F4   C5    BRK    A:66    X:47    Y:01    P:EB    SP:F9       BaseAddr:0000    IndirAddr:0000    Implied
C5F4   FB   C8   0E    RTI    A:66    X:47    Y:01    P:EB    SP:FC       BaseAddr:0000    IndirAddr:0000    Implied
0EC8   00   F4   C5    BRK    A:66    X:47    Y:01    P:EB    SP:F9       BaseAddr:0000    IndirAddr:0000    Implied
C5F4   FB   C9   0E    RTI    A:66    X:47    Y:01    P:EB    SP:FC       BaseAddr:0000    IndirAddr:0000    Implied
0EC9   00   F4   C5    BRK    A:66    X:47    Y:01    P:EB    SP:F9       BaseAddr:0000    IndirAddr:0000    Implied
C5F4   FB   CA   0E    RTI    A:66    X:47    Y:01    P:EB    SP:FC       BaseAddr:0000    IndirAddr:0000    Implied
0ECA   00   F4   C5    BRK    A:66    X:47    Y:01    P:EB    SP:F9       BaseAddr:0000    IndirAddr:0000    Implied
C5F4   FB   CB   0E    RTI    A:66    X:47    Y:01    P:EB    SP:FC       BaseAddr:0000    IndirAddr:0000    Implied
0ECB   00   F4   C5    BRK    A:66    X:47    Y:01    P:EB    SP:F9       BaseAddr:0000    IndirAddr:0000    Implied
C5F4   FB   CC   0E    RTI    A:66    X:47    Y:01    P:EB    SP:FC       BaseAddr:0000    IndirAddr:0000    Implied
0ECC   00   F4   C5    BRK    A:66    X:47    Y:01    P:EB    SP:F9       BaseAddr:0000    IndirAddr:0000    Implied
C5F4   FB   CD   0E    RTI    A:66    X:47    Y:01    P:EB    SP:FC       BaseAddr:0000    IndirAddr:0000    Implied
0ECD   00   F4   C5    BRK    A:66    X:47    Y:01    P:EB    SP:F9       BaseAddr:0000    IndirAddr:0000    Implied
C5F4   FB   CE   0E    RTI    A:66    X:47    Y:01    P:EB    SP:FC       BaseAddr:0000    IndirAddr:0000    Implied
0ECE   00   F4   C5    BRK    A:66    X:47    Y:01    P:EB    SP:F9       BaseAddr:0000    IndirAddr:0000    Implied
C5F4   FB   CF   0E    RTI    A:66    X:47    Y:01    P:EB    SP:FC       BaseAddr:0000    IndirAddr:0000    Implied
0ECF   00   F4   C5    BRK    A:66    X:47    Y:01    P:EB    SP:F9       BaseAddr:0000    IndirAddr:0000    Implied
C5F4   FB   D0   0E    RTI    A:66    X:47    Y:01    P:EB    SP:FC       BaseAddr:0000    IndirAddr:0000    Implied
0ED0   00   F4   C5    BRK    A:66    X:47    Y:01    P:EB    SP:F9       BaseAddr:0000    IndirAddr:0000    Implied
C5F4   FB   D1   0E    RTI    A:66    X:47    Y:01    P:EB    SP:FC       BaseAddr:0000    IndirAddr:0000    Implied
0ED1   00   F4   C5    BRK    A:66    X:47    Y:01    P:EB    SP:F9       BaseAddr:0000    IndirAddr:0000    Implied
C5F4   FB   D2   0E    RTI    A:66    X:47    Y:01    P:EB    SP:FC       BaseAddr:0000    IndirAddr:0000    Implied
0ED2   00   F4   C5    BRK    A:66    X:47    Y:01    P:EB    SP:F9       BaseAddr:0000    IndirAddr:0000    Implied
C5F4   FB   D3   0E    RTI    A:66    X:47    Y:01    P:EB    SP:FC       BaseAddr:0000    IndirAddr:0000    Implied
0ED3   00   F4   C5    BRK    A:66    X:47    Y:01    P:EB    SP:F9       BaseAddr:0000    IndirAddr:0000    Implied
C5F4   FB   D4   0E    RTI    A:66    X:47    Y:01    P:EB    SP:FC       BaseAddr:0000    IndirAddr:0000    Implied
0ED4   00   F4   C5    BRK    A:66    X:47    Y:01    P:EB    SP:F9       BaseAddr:0000    IndirAddr:0000    Implied
C5F4   FB   D5   0E    RTI    A:66    X:47    Y:01    P:EB    SP:FC       BaseAddr:0000    IndirAddr:0000    Implied
0ED5   00   F4   C5    BRK    A:66    X:47    Y:01    P:EB    SP:F9       BaseAddr:0000    IndirAddr:0000    Implied
C5F4   FB   D6   0E    RTI    A:66    X:47    Y:01    P:EB    SP:FC       BaseAddr:0000    IndirAddr:0000    Implied
0ED6   00   F4   C5    BRK    A:66    X:47    Y:01    P:EB    SP:F9       BaseAddr:0000    IndirAddr:0000    Implied
C5F4   FB   D7   0E    RTI    A:66    X:47    Y:01    P:EB    SP:FC       BaseAddr:0000    IndirAddr:0000    Implied
0ED7   00   F4   C5    BRK    A:66    X:47    Y:01    P:EB    SP:F9       BaseAddr:0000    IndirAddr:0000    Implied
C5F4   FB   D8   0E    RTI    A:66    X:47    Y:01    P:EB    SP:FC       BaseAddr:0000    IndirAddr:0000    Implied
0ED8   00   F4   C5    BRK    A:66    X:47    Y:01    P:EB    SP:F9       BaseAddr:0000    IndirAddr:0000    Implied
C5F4   FB   D9   0E    RTI    A:66    X:47    Y:01    P:EB    SP:FC       BaseAddr:0000    IndirAddr:0000    Implied
0ED9   00   F4   C5    BRK    A:66    X:47    Y:01    P:EB    SP:F9       BaseAddr:0000    IndirAddr:0000    Implied
C5F4   FB   DA   0E    RTI    A:66    X:47    Y:01    P:EB    SP:FC       BaseAddr:0000    IndirAddr:0000    Implied
0EDA   00   F4   C5    BRK    A:66    X:47    Y:01    P:EB    SP:F9       BaseAddr:0000    IndirAddr:0000    Implied
C5F4   FB   DB   0E    RTI    A:66    X:47    Y:01    P:EB    SP:FC       BaseAddr:0000    IndirAddr:0000    Implied
0EDB   00   F4   C5    BRK    A:66    X:47    Y:01    P:EB    SP:F9       BaseAddr:0000    IndirAddr:0000    Implied
C5F4   FB   DC   0E    RTI    A:66    X:47    Y:01    P:EB    SP:FC       BaseAddr:0000    IndirAddr:0000    Implied
0EDC   00   F4   C5    BRK    A:66    X:47    Y:01    P:EB    SP:F9       BaseAddr:0000    IndirAddr:0000    Implied
C5F4   FB   DD   0E    RTI    A:66    X:47    Y:01    P:EB    SP:FC       BaseAddr:0000    IndirAddr:0000    Implied
0EDD   00   F4   C5    BRK    A:66    X:47    Y:01    P:EB    SP:F9       BaseAddr:0000    IndirAddr:0000    Implied
C5F4   FB   DE   0E    RTI    A:66    X:47    Y:01    P:EB    SP:FC       BaseAddr:0000    IndirAddr:0000    Implied
0EDE   00   F4   C5    BRK    A:66    X:47    Y:01    P:EB    SP:F9       BaseAddr:0000    IndirAddr:0000    Implied
C5F4   FB   DF   0E    RTI    A:66    X:47    Y:01    P:EB    SP:FC       BaseAddr:0000    IndirAddr:0000    Implied
0EDF   00   F4   C5    BRK    A:66    X:47    Y:01    P:EB    SP:F9       BaseAddr:0000    IndirAddr:0000    Implied
C5F4   FB   E0   0E    RTI    A:66    X:47    Y:01    P:EB    SP:FC       BaseAddr:0000    IndirAddr:0000    Implied
0EE0   00   F4   C5    BRK    A:66    X:47    Y:01    P:EB    SP:F9       BaseAddr:0000    IndirAddr:0000    Implied
C5F4   FB   E1   0E    RTI    A:66    X:47    Y:01    P:EB    SP:FC       BaseAddr:0000    IndirAddr:0000    Implied
0EE1   00   F4   C5    BRK    A:66    X:47    Y:01    P:EB    SP:F9       BaseAddr:0000    IndirAddr:0000    Implied
C5F4   FB   E2   0E    RTI    A:66    X:47    Y:01    P:EB    SP:FC       BaseAddr:0000    IndirAddr:0000    Implied
0EE2   00   F4   C5    BRK    A:66    X:47    Y:01    P:EB    SP:F9       BaseAddr:0000    IndirAddr:0000    Implied
C5F4   FB   E3   0E    RTI    A:66    X:47    Y:01    P:EB    SP:FC       BaseAddr:0000    IndirAddr:0000    Implied
0EE3   00   F4   C5    BRK    A:66    X:47    Y:01    P:EB    SP:F9       BaseAddr:0000    IndirAddr:0000    Implied
C5F4   FB   E4   0E    RTI    A:66    X:47    Y:01    P:EB    SP:FC       BaseAddr:0000    IndirAddr:0000    Implied
0EE4   00   F4   C5    BRK    A:66    X:47    Y:01    P:EB    SP:F9       BaseAddr:0000    IndirAddr:0000    Implied
C5F4   FB   E5   0E    RTI    A:66    X:47    Y:01    P:EB    SP:FC       BaseAddr:0000    IndirAddr:0000    Implied
0EE5   00   F4   C5    BRK    A:66    X:47    Y:01    P:EB    SP:F9       BaseAddr:0000    IndirAddr:0000    Implied
C5F4   FB   E6   0E    RTI    A:66    X:47    Y:01    P:EB    SP:FC       BaseAddr:0000    IndirAddr:0000    Implied
0EE6   00   F4   C5    BRK    A:66    X:47    Y:01    P:EB    SP:F9       BaseAddr:0000    IndirAddr:0000    Implied
C5F4   FB   E7   0E    RTI    A:66    X:47    Y:01    P:EB    SP:FC       BaseAddr:0000    IndirAddr:0000    Implied
0EE7   00   F4   C5    BRK    A:66    X:47    Y:01    P:EB    SP:F9       BaseAddr:0000    IndirAddr:0000    Implied
C5F4   FB   E8   0E    RTI    A:66    X:47    Y:01    P:EB    SP:FC       BaseAddr:0000    IndirAddr:0000    Implied
0EE8   00   F4   C5    BRK    A:66    X:47    Y:01    P:EB    SP:F9       BaseAddr:0000    IndirAddr:0000    Implied
C5F4   FB   E9   0E    RTI    A:66    X:47    Y:01    P:EB    SP:FC       BaseAddr:0000    IndirAddr:0000    Implied
0EE9   00   F4   C5    BRK    A:66    X:47    Y:01    P:EB    SP:F9       BaseAddr:0000    IndirAddr:0000    Implied
C5F4   FB   EA   0E    RTI    A:66    X:47    Y:01    P:EB    SP:FC       BaseAddr:0000    IndirAddr:0000    Implied
0EEA   00   F4   C5    BRK    A:66    X:47    Y:01    P:EB    SP:F9       BaseAddr:0000    IndirAddr:0000    Implied
C5F4   FB   EB   0E    RTI    A:66    X:47    Y:01    P:EB    SP:FC       BaseAddr:0000    IndirAddr:0000    Implied
0EEB   00   F4   C5    BRK    A:66    X:47    Y:01    P:EB    SP:F9       BaseAddr:0000    IndirAddr:0000    Implied
C5F4   FB   EC   0E    RTI    A:66    X:47    Y:01    P:EB    SP:FC       BaseAddr:0000    IndirAddr:0000    Implied
0EEC   00   F4   C5    BRK    A:66    X:47    Y:01    P:EB    SP:F9       BaseAddr:0000    IndirAddr:0000    Implied
C5F4   FB   ED   0E    RTI    A:66    X:47    Y:01    P:EB    SP:FC       BaseAddr:0000    IndirAddr:0000    Implied
0EED   00   F4   C5    BRK    A:66    X:47    Y:01    P:EB    SP:F9       BaseAddr:0000    IndirAddr:0000    Implied
C5F4   FB   EE   0E    RTI    A:66    X:47    Y:01    P:EB    SP:FC       BaseAddr:0000    IndirAddr:0000    Implied
0EEE   00   F4   C5    BRK    A:66    X:47    Y:01    P:EB    SP:F9       BaseAddr:0000    IndirAddr:0000    Implied
C5F4   FB   EF   0E    RTI    A:66    X:47    Y:01    P:EB    SP:FC       BaseAddr:0000    IndirAddr:0000    Implied
0EEF   00   F4   C5    BRK    A:66    X:47    Y:01    P:EB    SP:F9       BaseAddr:0000    IndirAddr:0000    Implied
C5F4   FB   F0   0E    RTI    A:66    X:47    Y:01    P:EB    SP:FC       BaseAddr:0000    IndirAddr:0000    Implied
0EF0   00   F4   C5    BRK    A:66    X:47    Y:01    P:EB    SP:F9       BaseAddr:0000    IndirAddr:0000    Implied
C5F4   FB   F1   0E    RTI    A:66    X:47    Y:01    P:EB    SP:FC       BaseAddr:0000    IndirAddr:0000    Implied
0EF1   00   F4   C5    BRK    A:66    X:47    Y:01    P:EB    SP:F9       BaseAddr:0000    IndirAddr:0000    Implied
C5F4   FB   F2   0E    RTI    A:66    X:47    Y:01    P:EB    SP:FC       BaseAddr:0000    IndirAddr:0000    Implied
0EF2   00   F4   C5    BRK    A:66    X:47    Y:01    P:EB    SP:F9       BaseAddr:0000    IndirAddr:0000    Implied
C5F4   FB   F3   0E    RTI    A:66    X:47    Y:01    P:EB    SP:FC       BaseAddr:0000    IndirAddr:0000    Implied
0EF3   00   F4   C5    BRK    A:66    X:47    Y:01    P:EB    SP:F9       BaseAddr:0000    IndirAddr:0000    Implied
C5F4   FB   F4   0E    RTI    A:66    X:47    Y:01    P:EB    SP:FC       BaseAddr:0000    IndirAddr:0000    Implied
0EF4   00   F4   C5    BRK    A:66    X:47    Y:01    P:EB    SP:F9       BaseAddr:0000    IndirAddr:0000    Implied
C5F4   FB   F5   0E    RTI    A:66    X:47    Y:01    P:EB    SP:FC       BaseAddr:0000    IndirAddr:0000    Implied
0EF5   00   F4   C5    BRK    A:66    X:47    Y:01    P:EB    SP:F9       BaseAddr:0000    IndirAddr:0000    Implied
C5F4   FB   F6   0E    RTI    A:66    X:47    Y:01    P:EB    SP:FC       BaseAddr:0000    IndirAddr:0000    Implied
0EF6   00   F4   C5    BRK    A:66    X:47    Y:01    P:EB    SP:F9       BaseAddr:0000    IndirAddr:0000    Implied
C5F4   FB   F7   0E    RTI    A:66    X:47    Y:01    P:EB    SP:FC       BaseAddr:0000    IndirAddr:0000    Implied
0EF7   00   F4   C5    BRK    A:66    X:47    Y:01    P:EB    SP:F9       BaseAddr:0000    IndirAddr:0000    Implied
C5F4   FB   F8   0E    RTI    A:66    X:47    Y:01    P:EB    SP:FC       BaseAddr:0000    IndirAddr:0000    Implied
0EF8   00   F4   C5    BRK    A:66    X:47    Y:01    P:EB    SP:F9       BaseAddr:0000    IndirAddr:0000    Implied
C5F4   FB   F9   0E    RTI    A:66    X:47    Y:01    P:EB    SP:FC       BaseAddr:0000    IndirAddr:0000    Implied
0EF9   00   F4   C5    BRK    A:66    X:47    Y:01    P:EB    SP:F9       BaseAddr:0000    IndirAddr:0000    Implied
C5F4   FB   FA   0E    RTI    A:66    X:47    Y:01    P:EB    SP:FC       BaseAddr:0000    IndirAddr:0000    Implied
0EFA   00   F4   C5    BRK    A:66    X:47    Y:01    P:EB    SP:F9       BaseAddr:0000    IndirAddr:0000    Implied
C5F4   FB   FB   0E    RTI    A:66    X:47    Y:01    P:EB    SP:FC       BaseAddr:0000    IndirAddr:0000    Implied
0EFB   00   F4   C5    BRK    A:66    X:47    Y:01    P:EB    SP:F9       BaseAddr:0000    IndirAddr:0000    Implied
C5F4   FB   FC   0E    RTI    A:66    X:47    Y:01    P:EB    SP:FC       BaseAddr:0000    IndirAddr:0000    Implied
0EFC   00   F4   C5    BRK    A:66    X:47    Y:01    P:EB    SP:F9       BaseAddr:0000    IndirAddr:0000    Implied
C5F4   FB   FD   0E    RTI    A:66    X:47    Y:01    P:EB    SP:FC       BaseAddr:0000    IndirAddr:0000    Implied
0EFD   00   F4   C5    BRK    A:66    X:47    Y:01    P:EB    SP:F9       BaseAddr:0000    IndirAddr:0000    Implied
C5F4   FB   FE   0E    RTI    A:66    X:47    Y:01    P:EB    SP:FC       BaseAddr:0000    IndirAddr:0000    Implied
0EFE   00   F4   C5    BRK    A:66    X:47    Y:01    P:EB    SP:F9       BaseAddr:0000    IndirAddr:0000    Implied
C5F4   FB   FF   0E    RTI    A:66    X:47    Y:01    P:EB    SP:FC       BaseAddr:0000    IndirAddr:0000    Implied
0EFF   00   F4   C5    BRK    A:66    X:47    Y:01    P:EB    SP:F9       BaseAddr:0000    IndirAddr:0000    Implied
C5F4   FB   00   0F    RTI    A:66    X:47    Y:01    P:EB    SP:FC       BaseAddr:0000    IndirAddr:0000    Implied
0F00   00   F4   C5    BRK    A:66    X:47    Y:01    P:EB    SP:F9       BaseAddr:0000    IndirAddr:0000    Implied
C5F4   FB   01   0F    RTI    A:66    X:47    Y:01    P:EB    SP:FC       BaseAddr:0000    IndirAddr:0000    Implied
0F01   00   F4   C5    BRK    A:66    X:47    Y:01    P:EB    SP:F9       BaseAddr:0000    IndirAddr:0000    Implied
C5F4   FB   02   0F    RTI    A:66    X:47    Y:01    P:EB    SP:FC       BaseAddr:0000    IndirAddr:0000    Implied
0F02   00   F4   C5    BRK    A:66    X:47    Y:01    P:EB    SP:F9       BaseAddr:0000    IndirAddr:0000    Implied
C5F4   FB   03   0F    RTI    A:66    X:47    Y:01    P:EB    SP:FC       BaseAddr:0000    IndirAddr:0000    Implied
0F03   00   F4   C5    BRK    A:66    X:47    Y:01    P:EB    SP:F9       BaseAddr:0000    IndirAddr:0000    Implied
C5F4   FB   04   0F    RTI    A:66    X:47    Y:01    P:EB    SP:FC       BaseAddr:0000    IndirAddr:0000    Implied
0F04   00   F4   C5    BRK    A:66    X:47    Y:01    P:EB    SP:F9       BaseAddr:0000    IndirAddr:0000    Implied
C5F4   FB   05   0F    RTI    A:66    X:47    Y:01    P:EB    SP:FC       BaseAddr:0000    IndirAddr:0000    Implied
0F05   00   F4   C5    BRK    A:66    X:47    Y:01    P:EB    SP:F9       BaseAddr:0000    IndirAddr:0000    Implied
C5F4   FB   06   0F    RTI    A:66    X:47    Y:01    P:EB    SP:FC       BaseAddr:0000    IndirAddr:0000    Implied
0F06   00   F4   C5    BRK    A:66    X:47    Y:01    P:EB    SP:F9       BaseAddr:0000    IndirAddr:0000    Implied
C5F4   FB   07   0F    RTI    A:66    X:47    Y:01    P:EB    SP:FC       BaseAddr:0000    IndirAddr:0000    Implied
0F07   00   F4   C5    BRK    A:66    X:47    Y:01    P:EB    SP:F9       BaseAddr:0000    IndirAddr:0000    Implied
C5F4   FB   08   0F    RTI    A:66    X:47    Y:01    P:EB    SP:FC       BaseAddr:0000    IndirAddr:0000    Implied
0F08   00   F4   C5    BRK    A:66    X:47    Y:01    P:EB    SP:F9       BaseAddr:0000    IndirAddr:0000    Implied
C5F4   FB   09   0F    RTI    A:66    X:47    Y:01    P:EB    SP:FC       BaseAddr:0000    IndirAddr:0000    Implied
0F09   00   F4   C5    BRK    A:66    X:47    Y:01    P:EB    SP:F9       BaseAddr:0000    IndirAddr:0000    Implied
C5F4   FB   0A   0F    RTI    A:66    X:47    Y:01    P:EB    SP:FC       BaseAddr:0000    IndirAddr:0000    Implied
0F0A   00   F4   C5    BRK    A:66    X:47    Y:01    P:EB    SP:F9       BaseAddr:0000    IndirAddr:0000    Implied
C5F4   FB   0B   0F    RTI    A:66    X:47    Y:01    P:EB    SP:FC       BaseAddr:0000    IndirAddr:0000    Implied
0F0B   00   F4   C5    BRK    A:66    X:47    Y:01    P:EB    SP:F9       BaseAddr:0000    IndirAddr:0000    Implied
C5F4   FB   0C   0F    RTI    A:66    X:47    Y:01    P:EB    SP:FC       BaseAddr:0000    IndirAddr:0000    Implied
0F0C   00   F4   C5    BRK    A:66    X:47    Y:01    P:EB    SP:F9       BaseAddr:0000    IndirAddr:0000    Implied
C5F4   FB   0D   0F    RTI    A:66    X:47    Y:01    P:EB    SP:FC       BaseAddr:0000    IndirAddr:0000    Implied
0F0D   00   F4   C5    BRK    A:66    X:47    Y:01    P:EB    SP:F9       BaseAddr:0000    IndirAddr:0000    Implied
C5F4   FB   0E   0F    RTI    A:66    X:47    Y:01    P:EB    SP:FC       BaseAddr:0000    IndirAddr:0000    Implied
0F0E   00   F4   C5    BRK    A:66    X:47    Y:01    P:EB    SP:F9       BaseAddr:0000    IndirAddr:0000    Implied
C5F4   FB   0F   0F    RTI    A:66    X:47    Y:01    P:EB    SP:FC       BaseAddr:0000    IndirAddr:0000    Implied
0F0F   00   F4   C5    BRK    A:66    X:47    Y:01    P:EB    SP:F9       BaseAddr:0000    IndirAddr:0000    Implied
C5F4   FB   10   0F    RTI    A:66    X:47    Y:01    P:EB    SP:FC       BaseAddr:0000    IndirAddr:0000    Implied
0F10   00   F4   C5    BRK    A:66    X:47    Y:01    P:EB    SP:F9       BaseAddr:0000    IndirAddr:0000    Implied
C5F4   FB   11   0F    RTI    A:66    X:47    Y:01    P:EB    SP:FC       BaseAddr:0000    IndirAddr:0000    Implied
0F11   00   F4   C5    BRK    A:66    X:47    Y:01    P:EB    SP:F9       BaseAddr:0000    IndirAddr:0000    Implied
C5F4   FB   12   0F    RTI    A:66    X:47    Y:01    P:EB    SP:FC       BaseAddr:0000    IndirAddr:0000    Implied
0F12   00   F4   C5    BRK    A:66    X:47    Y:01    P:EB    SP:F9       BaseAddr:0000    IndirAddr:0000    Implied
C5F4   FB   13   0F    RTI    A:66    X:47    Y:01    P:EB    SP:FC       BaseAddr:0000    IndirAddr:0000    Implied
0F13   00   F4   C5    BRK    A:66    X:47    Y:01    P:EB    SP:F9       BaseAddr:0000    IndirAddr:0000    Implied
C5F4   FB   14   0F    RTI    A:66    X:47    Y:01    P:EB    SP:FC       BaseAddr:0000    IndirAddr:0000    Implied
0F14   00   F4   C5    BRK    A:66    X:47    Y:01    P:EB    SP:F9       BaseAddr:0000    IndirAddr:0000    Implied
C5F4   FB   15   0F    RTI    A:66    X:47    Y:01    P:EB    SP:FC       BaseAddr:0000    IndirAddr:0000    Implied
0F15   00   F4   C5    BRK    A:66    X:47    Y:01    P:EB    SP:F9       BaseAddr:0000    IndirAddr:0000    Implied
C5F4   FB   16   0F    RTI    A:66    X:47    Y:01    P:EB    SP:FC       BaseAddr:0000    IndirAddr:0000    Implied
0F16   00   F4   C5    BRK    A:66    X:47    Y:01    P:EB    SP:F9       BaseAddr:0000    IndirAddr:0000    Implied
C5F4   FB   17   0F    RTI    A:66    X:47    Y:01    P:EB    SP:FC       BaseAddr:0000    IndirAddr:0000    Implied
0F17   00   F4   C5    BRK    A:66    X:47    Y:01    P:EB    SP:F9       BaseAddr:0000    IndirAddr:0000    Implied
C5F4   FB   18   0F    RTI    A:66    X:47    Y:01    P:EB    SP:FC       BaseAddr:0000    IndirAddr:0000    Implied
0F18   00   F4   C5    BRK    A:66    X:47    Y:01    P:EB    SP:F9       BaseAddr:0000    IndirAddr:0000    Implied
C5F4   FB   19   0F    RTI    A:66    X:47    Y:01    P:EB    SP:FC       BaseAddr:0000    IndirAddr:0000    Implied
0F19   00   F4   C5    BRK    A:66    X:47    Y:01    P:EB    SP:F9       BaseAddr:0000    IndirAddr:0000    Implied
C5F4   FB   1A   0F    RTI    A:66    X:47    Y:01    P:EB    SP:FC       BaseAddr:0000    IndirAddr:0000    Implied
0F1A   00   F4   C5    BRK    A:66    X:47    Y:01    P:EB    SP:F9       BaseAddr:0000    IndirAddr:0000    Implied
C5F4   FB   1B   0F    RTI    A:66    X:47    Y:01    P:EB    SP:FC       BaseAddr:0000    IndirAddr:0000    Implied
0F1B   00   F4   C5    BRK    A:66    X:47    Y:01    P:EB    SP:F9       BaseAddr:0000    IndirAddr:0000    Implied
C5F4   FB   1C   0F    RTI    A:66    X:47    Y:01    P:EB    SP:FC       BaseAddr:0000    IndirAddr:0000    Implied
0F1C   00   F4   C5    BRK    A:66    X:47    Y:01    P:EB    SP:F9       BaseAddr:0000    IndirAddr:0000    Implied
C5F4   FB   1D   0F    RTI    A:66    X:47    Y:01    P:EB    SP:FC       BaseAddr:0000    IndirAddr:0000    Implied
0F1D   00   F4   C5    BRK    A:66    X:47    Y:01    P:EB    SP:F9       BaseAddr:0000    IndirAddr:0000    Implied
C5F4   FB   1E   0F    RTI    A:66    X:47    Y:01    P:EB    SP:FC       BaseAddr:0000    IndirAddr:0000    Implied
0F1E   00   F4   C5    BRK    A:66    X:47    Y:01    P:EB    SP:F9       BaseAddr:0000    IndirAddr:0000    Implied
C5F4   FB   1F   0F    RTI    A:66    X:47    Y:01    P:EB    SP:FC       BaseAddr:0000    IndirAddr:0000    Implied
0F1F   00   F4   C5    BRK    A:66    X:47    Y:01    P:EB    SP:F9       BaseAddr:0000    IndirAddr:0000    Implied
C5F4   FB   20   0F    RTI    A:66    X:47    Y:01    P:EB    SP:FC       BaseAddr:0000    IndirAddr:0000    Implied
0F20   00   F4   C5    BRK    A:66    X:47    Y:01    P:EB    SP:F9       BaseAddr:0000    IndirAddr:0000    Implied
C5F4   FB   21   0F    RTI    A:66    X:47    Y:01    P:EB    SP:FC       BaseAddr:0000    IndirAddr:0000    Implied
0F21   00   F4   C5    BRK    A:66    X:47    Y:01    P:EB    SP:F9       BaseAddr:0000    IndirAddr:0000    Implied
C5F4   FB   22   0F    RTI    A:66    X:47    Y:01    P:EB    SP:FC       BaseAddr:0000    IndirAddr:0000    Implied
0F22   00   F4   C5    BRK    A:66    X:47    Y:01    P:EB    SP:F9       BaseAddr:0000    IndirAddr:0000    Implied
C5F4   FB   23   0F    RTI    A:66    X:47    Y:01    P:EB    SP:FC       BaseAddr:0000    IndirAddr:0000    Implied
0F23   00   F4   C5    BRK    A:66    X:47    Y:01    P:EB    SP:F9       BaseAddr:0000    IndirAddr:0000    Implied
C5F4   FB   24   0F    RTI    A:66    X:47    Y:01    P:EB    SP:FC       BaseAddr:0000    IndirAddr:0000    Implied
0F24   00   F4   C5    BRK    A:66    X:47    Y:01    P:EB    SP:F9       BaseAddr:0000    IndirAddr:0000    Implied
C5F4   FB   25   0F    RTI    A:66    X:47    Y:01    P:EB    SP:FC       BaseAddr:0000    IndirAddr:0000    Implied
0F25   00   F4   C5    BRK    A:66    X:47    Y:01    P:EB    SP:F9       BaseAddr:0000    IndirAddr:0000    Implied
C5F4   FB   26   0F    RTI    A:66    X:47    Y:01    P:EB    SP:FC       BaseAddr:0000    IndirAddr:0000    Implied
0F26   00   F4   C5    BRK    A:66    X:47    Y:01    P:EB    SP:F9       BaseAddr:0000    IndirAddr:0000    Implied
C5F4   FB   27   0F    RTI    A:66    X:47    Y:01    P:EB    SP:FC       BaseAddr:0000    IndirAddr:0000    Implied
0F27   00   F4   C5    BRK    A:66    X:47    Y:01    P:EB    SP:F9       BaseAddr:0000    IndirAddr:0000    Implied
C5F4   FB   28   0F    RTI    A:66    X:47    Y:01    P:EB    SP:FC       BaseAddr:0000    IndirAddr:0000    Implied
0F28   00   F4   C5    BRK    A:66    X:47    Y:01    P:EB    SP:F9       BaseAddr:0000    IndirAddr:0000    Implied
C5F4   FB   29   0F    RTI    A:66    X:47    Y:01    P:EB    SP:FC       BaseAddr:0000    IndirAddr:0000    Implied
0F29   00   F4   C5    BRK    A:66    X:47    Y:01    P:EB    SP:F9       BaseAddr:0000    IndirAddr:0000    Implied
C5F4   FB   2A   0F    RTI    A:66    X:47    Y:01    P:EB    SP:FC       BaseAddr:0000    IndirAddr:0000    Implied
0F2A   00   F4   C5    BRK    A:66    X:47    Y:01    P:EB    SP:F9       BaseAddr:0000    IndirAddr:0000    Implied
C5F4   FB   2B   0F    RTI    A:66    X:47    Y:01    P:EB    SP:FC       BaseAddr:0000    IndirAddr:0000    Implied
0F2B   00   F4   C5    BRK    A:66    X:47    Y:01    P:EB    SP:F9       BaseAddr:0000    IndirAddr:0000    Implied
C5F4   FB   2C   0F    RTI    A:66    X:47    Y:01    P:EB    SP:FC       BaseAddr:0000    IndirAddr:0000    Implied
0F2C   00   F4   C5    BRK    A:66    X:47    Y:01    P:EB    SP:F9       BaseAddr:0000    IndirAddr:0000    Implied
C5F4   FB   2D   0F    RTI    A:66    X:47    Y:01    P:EB    SP:FC       BaseAddr:0000    IndirAddr:0000    Implied
0F2D   00   F4   C5    BRK    A:66    X:47    Y:01    P:EB    SP:F9       BaseAddr:0000    IndirAddr:0000    Implied
C5F4   FB   2E   0F    RTI    A:66    X:47    Y:01    P:EB    SP:FC       BaseAddr:0000    IndirAddr:0000    Implied
0F2E   00   F4   C5    BRK    A:66    X:47    Y:01    P:EB    SP:F9       BaseAddr:0000    IndirAddr:0000    Implied
C5F4   FB   2F   0F    RTI    A:66    X:47    Y:01    P:EB    SP:FC       BaseAddr:0000    IndirAddr:0000    Implied
0F2F   00   F4   C5    BRK    A:66    X:47    Y:01    P:EB    SP:F9       BaseAddr:0000    IndirAddr:0000    Implied
C5F4   FB   30   0F    RTI    A:66    X:47    Y:01    P:EB    SP:FC       BaseAddr:0000    IndirAddr:0000    Implied
0F30   00   F4   C5    BRK    A:66    X:47    Y:01    P:EB    SP:F9       BaseAddr:0000    IndirAddr:0000    Implied
C5F4   FB   31   0F    RTI    A:66    X:47    Y:01    P:EB    SP:FC       BaseAddr:0000    IndirAddr:0000    Implied
0F31   00   F4   C5    BRK    A:66    X:47    Y:01    P:EB    SP:F9       BaseAddr:0000    IndirAddr:0000    Implied
C5F4   FB   32   0F    RTI    A:66    X:47    Y:01    P:EB    SP:FC       BaseAddr:0000    IndirAddr:0000    Implied
0F32   00   F4   C5    BRK    A:66    X:47    Y:01    P:EB    SP:F9       BaseAddr:0000    IndirAddr:0000    Implied
C5F4   FB   33   0F    RTI    A:66    X:47    Y:01    P:EB    SP:FC       BaseAddr:0000    IndirAddr:0000    Implied
0F33   00   F4   C5    BRK    A:66    X:47    Y:01    P:EB    SP:F9       BaseAddr:0000    IndirAddr:0000    Implied
C5F4   FB   34   0F    RTI    A:66    X:47    Y:01    P:EB    SP:FC       BaseAddr:0000    IndirAddr:0000    Implied
0F34   00   F4   C5    BRK    A:66    X:47    Y:01    P:EB    SP:F9       BaseAddr:0000    IndirAddr:0000    Implied
C5F4   FB   35   0F    RTI    A:66    X:47    Y:01    P:EB    SP:FC       BaseAddr:0000    IndirAddr:0000    Implied
0F35   00   F4   C5    BRK    A:66    X:47    Y:01    P:EB    SP:F9       BaseAddr:0000    IndirAddr:0000    Implied
C5F4   FB   36   0F    RTI    A:66    X:47    Y:01    P:EB    SP:FC       BaseAddr:0000    IndirAddr:0000    Implied
0F36   00   F4   C5    BRK    A:66    X:47    Y:01    P:EB    SP:F9       BaseAddr:0000    IndirAddr:0000    Implied
C5F4   FB   37   0F    RTI    A:66    X:47    Y:01    P:EB    SP:FC       BaseAddr:0000    IndirAddr:0000    Implied
0F37   00   F4   C5    BRK    A:66    X:47    Y:01    P:EB    SP:F9       BaseAddr:0000    IndirAddr:0000    Implied
C5F4   FB   38   0F    RTI    A:66    X:47    Y:01    P:EB    SP:FC       BaseAddr:0000    IndirAddr:0000    Implied
0F38   00   F4   C5    BRK    A:66    X:47    Y:01    P:EB    SP:F9       BaseAddr:0000    IndirAddr:0000    Implied
C5F4   FB   39   0F    RTI    A:66    X:47    Y:01    P:EB    SP:FC       BaseAddr:0000    IndirAddr:0000    Implied
0F39   00   F4   C5    BRK    A:66    X:47    Y:01    P:EB    SP:F9       BaseAddr:0000    IndirAddr:0000    Implied
C5F4   FB   3A   0F    RTI    A:66    X:47    Y:01    P:EB    SP:FC       BaseAddr:0000    IndirAddr:0000    Implied
0F3A   00   F4   C5    BRK    A:66    X:47    Y:01    P:EB    SP:F9       BaseAddr:0000    IndirAddr:0000    Implied
C5F4   FB   3B   0F    RTI    A:66    X:47    Y:01    P:EB    SP:FC       BaseAddr:0000    IndirAddr:0000    Implied
0F3B   00   F4   C5    BRK    A:66    X:47    Y:01    P:EB    SP:F9       BaseAddr:0000    IndirAddr:0000    Implied
C5F4   FB   3C   0F    RTI    A:66    X:47    Y:01    P:EB    SP:FC       BaseAddr:0000    IndirAddr:0000    Implied
0F3C   00   F4   C5    BRK    A:66    X:47    Y:01    P:EB    SP:F9       BaseAddr:0000    IndirAddr:0000    Implied
C5F4   FB   3D   0F    RTI    A:66    X:47    Y:01    P:EB    SP:FC       BaseAddr:0000    IndirAddr:0000    Implied
0F3D   00   F4   C5    BRK    A:66    X:47    Y:01    P:EB    SP:F9       BaseAddr:0000    IndirAddr:0000    Implied
C5F4   FB   3E   0F    RTI    A:66    X:47    Y:01    P:EB    SP:FC       BaseAddr:0000    IndirAddr:0000    Implied
0F3E   00   F4   C5    BRK    A:66    X:47    Y:01    P:EB    SP:F9       BaseAddr:0000    IndirAddr:0000    Implied
C5F4   FB   3F   0F    RTI    A:66    X:47    Y:01    P:EB    SP:FC       BaseAddr:0000    IndirAddr:0000    Implied
0F3F   00   F4   C5    BRK    A:66    X:47    Y:01    P:EB    SP:F9       BaseAddr:0000    IndirAddr:0000    Implied
C5F4   FB   40   0F    RTI    A:66    X:47    Y:01    P:EB    SP:FC       BaseAddr:0000    IndirAddr:0000    Implied
0F40   00   F4   C5    BRK    A:66    X:47    Y:01    P:EB    SP:F9       BaseAddr:0000    IndirAddr:0000    Implied
C5F4   FB   41   0F    RTI    A:66    X:47    Y:01    P:EB    SP:FC       BaseAddr:0000    IndirAddr:0000    Implied
0F41   00   F4   C5    BRK    A:66    X:47    Y:01    P:EB    SP:F9       BaseAddr:0000    IndirAddr:0000    Implied
C5F4   FB   42   0F    RTI    A:66    X:47    Y:01    P:EB    SP:FC       BaseAddr:0000    IndirAddr:0000    Implied
0F42   00   F4   C5    BRK    A:66    X:47    Y:01    P:EB    SP:F9       BaseAddr:0000    IndirAddr:0000    Implied
C5F4   FB   43   0F    RTI    A:66    X:47    Y:01    P:EB    SP:FC       BaseAddr:0000    IndirAddr:0000    Implied
0F43   00   F4   C5    BRK    A:66    X:47    Y:01    P:EB    SP:F9       BaseAddr:0000    IndirAddr:0000    Implied
C5F4   FB   44   0F    RTI    A:66    X:47    Y:01    P:EB    SP:FC       BaseAddr:0000    IndirAddr:0000    Implied
0F44   00   F4   C5    BRK    A:66    X:47    Y:01    P:EB    SP:F9       BaseAddr:0000    IndirAddr:0000    Implied
C5F4   FB   45   0F    RTI    A:66    X:47    Y:01    P:EB    SP:FC       BaseAddr:0000    IndirAddr:0000    Implied
0F45   00   F4   C5    BRK    A:66    X:47    Y:01    P:EB    SP:F9       BaseAddr:0000    IndirAddr:0000    Implied
C5F4   FB   46   0F    RTI    A:66    X:47    Y:01    P:EB    SP:FC       BaseAddr:0000    IndirAddr:0000    Implied
0F46   00   F4   C5    BRK    A:66    X:47    Y:01    P:EB    SP:F9       BaseAddr:0000    IndirAddr:0000    Implied
C5F4   FB   47   0F    RTI    A:66    X:47    Y:01    P:EB    SP:FC       BaseAddr:0000    IndirAddr:0000    Implied
0F47   00   F4   C5    BRK    A:66    X:47    Y:01    P:EB    SP:F9       BaseAddr:0000    IndirAddr:0000    Implied
C5F4   FB   48   0F    RTI    A:66    X:47    Y:01    P:EB    SP:FC       BaseAddr:0000    IndirAddr:0000    Implied
0F48   00   F4   C5    BRK    A:66    X:47    Y:01    P:EB    SP:F9       BaseAddr:0000    IndirAddr:0000    Implied
C5F4   FB   49   0F    RTI    A:66    X:47    Y:01    P:EB    SP:FC       BaseAddr:0000    IndirAddr:0000    Implied
0F49   00   F4   C5    BRK    A:66    X:47    Y:01    P:EB    SP:F9       BaseAddr:0000    IndirAddr:0000    Implied
C5F4   FB   4A   0F    RTI    A:66    X:47    Y:01    P:EB    SP:FC       BaseAddr:0000    IndirAddr:0000    Implied
0F4A   00   F4   C5    BRK    A:66    X:47    Y:01    P:EB    SP:F9       BaseAddr:0000    IndirAddr:0000    Implied
C5F4   FB   4B   0F    RTI    A:66    X:47    Y:01    P:EB    SP:FC       BaseAddr:0000    IndirAddr:0000    Implied
0F4B   00   F4   C5    BRK    A:66    X:47    Y:01    P:EB    SP:F9       BaseAddr:0000    IndirAddr:0000    Implied
C5F4   FB   4C   0F    RTI    A:66    X:47    Y:01    P:EB    SP:FC       BaseAddr:0000    IndirAddr:0000    Implied
0F4C   00   F4   C5    BRK    A:66    X:47    Y:01    P:EB    SP:F9       BaseAddr:0000    IndirAddr:0000    Implied
C5F4   FB   4D   0F    RTI    A:66    X:47    Y:01    P:EB    SP:FC       BaseAddr:0000    IndirAddr:0000    Implied
0F4D   00   F4   C5    BRK    A:66    X:47    Y:01    P:EB    SP:F9       BaseAddr:0000    IndirAddr:0000    Implied
C5F4   FB   4E   0F    RTI    A:66    X:47    Y:01    P:EB    SP:FC       BaseAddr:0000    IndirAddr:0000    Implied
0F4E   00   F4   C5    BRK    A:66    X:47    Y:01    P:EB    SP:F9       BaseAddr:0000    IndirAddr:0000    Implied
C5F4   FB   4F   0F    RTI    A:66    X:47    Y:01    P:EB    SP:FC       BaseAddr:0000    IndirAddr:0000    Implied
0F4F   00   F4   C5    BRK    A:66    X:47    Y:01    P:EB    SP:F9       BaseAddr:0000    IndirAddr:0000    Implied
C5F4   FB   50   0F    RTI    A:66    X:47    Y:01    P:EB    SP:FC       BaseAddr:0000    IndirAddr:0000    Implied
0F50   00   F4   C5    BRK    A:66    X:47    Y:01    P:EB    SP:F9       BaseAddr:0000    IndirAddr:0000    Implied
C5F4   FB   51   0F    RTI    A:66    X:47    Y:01    P:EB    SP:FC       BaseAddr:0000    IndirAddr:0000    Implied
0F51   00   F4   C5    BRK    A:66    X:47    Y:01    P:EB    SP:F9       BaseAddr:0000    IndirAddr:0000    Implied
C5F4   FB   52   0F    RTI    A:66    X:47    Y:01    P:EB    SP:FC       BaseAddr:0000    IndirAddr:0000    Implied
0F52   00   F4   C5    BRK    A:66    X:47    Y:01    P:EB    SP:F9       BaseAddr:0000    IndirAddr:0000    Implied
C5F4   FB   53   0F    RTI    A:66    X:47    Y:01    P:EB    SP:FC       BaseAddr:0000    IndirAddr:0000    Implied
0F53   00   F4   C5    BRK    A:66    X:47    Y:01    P:EB    SP:F9       BaseAddr:0000    IndirAddr:0000    Implied
C5F4   FB   54   0F    RTI    A:66    X:47    Y:01    P:EB    SP:FC       BaseAddr:0000    IndirAddr:0000    Implied
0F54   00   F4   C5    BRK    A:66    X:47    Y:01    P:EB    SP:F9       BaseAddr:0000    IndirAddr:0000    Implied
C5F4   FB   55   0F    RTI    A:66    X:47    Y:01    P:EB    SP:FC       BaseAddr:0000    IndirAddr:0000    Implied
0F55   00   F4   C5    BRK    A:66    X:47    Y:01    P:EB    SP:F9       BaseAddr:0000    IndirAddr:0000    Implied
C5F4   FB   56   0F    RTI    A:66    X:47    Y:01    P:EB    SP:FC       BaseAddr:0000    IndirAddr:0000    Implied
0F56   00   F4   C5    BRK    A:66    X:47    Y:01    P:EB    SP:F9       BaseAddr:0000    IndirAddr:0000    Implied
C5F4   FB   57   0F    RTI    A:66    X:47    Y:01    P:EB    SP:FC       BaseAddr:0000    IndirAddr:0000    Implied
0F57   00   F4   C5    BRK    A:66    X:47    Y:01    P:EB    SP:F9       BaseAddr:0000    IndirAddr:0000    Implied
C5F4   FB   58   0F    RTI    A:66    X:47    Y:01    P:EB    SP:FC       BaseAddr:0000    IndirAddr:0000    Implied
0F58   00   F4   C5    BRK    A:66    X:47    Y:01    P:EB    SP:F9       BaseAddr:0000    IndirAddr:0000    Implied
C5F4   FB   59   0F    RTI    A:66    X:47    Y:01    P:EB    SP:FC       BaseAddr:0000    IndirAddr:0000    Implied
0F59   00   F4   C5    BRK    A:66    X:47    Y:01    P:EB    SP:F9       BaseAddr:0000    IndirAddr:0000    Implied
C5F4   FB   5A   0F    RTI    A:66    X:47    Y:01    P:EB    SP:FC       BaseAddr:0000    IndirAddr:0000    Implied
0F5A   00   F4   C5    BRK    A:66    X:47    Y:01    P:EB    SP:F9       BaseAddr:0000    IndirAddr:0000    Implied
C5F4   FB   5B   0F    RTI    A:66    X:47    Y:01    P:EB    SP:FC       BaseAddr:0000    IndirAddr:0000    Implied
0F5B   00   F4   C5    BRK    A:66    X:47    Y:01    P:EB    SP:F9       BaseAddr:0000    IndirAddr:0000    Implied
C5F4   FB   5C   0F    RTI    A:66    X:47    Y:01    P:EB    SP:FC       BaseAddr:0000    IndirAddr:0000    Implied
0F5C   00   F4   C5    BRK    A:66    X:47    Y:01    P:EB    SP:F9       BaseAddr:0000    IndirAddr:0000    Implied
C5F4   FB   5D   0F    RTI    A:66    X:47    Y:01    P:EB    SP:FC       BaseAddr:0000    IndirAddr:0000    Implied
0F5D   00   F4   C5    BRK    A:66    X:47    Y:01    P:EB    SP:F9       BaseAddr:0000    IndirAddr:0000    Implied
C5F4   FB   5E   0F    RTI    A:66    X:47    Y:01    P:EB    SP:FC       BaseAddr:0000    IndirAddr:0000    Implied
0F5E   00   F4   C5    BRK    A:66    X:47    Y:01    P:EB    SP:F9       BaseAddr:0000    IndirAddr:0000    Implied
C5F4   FB   5F   0F    RTI    A:66    X:47    Y:01    P:EB    SP:FC       BaseAddr:0000    IndirAddr:0000    Implied
0F5F   00   F4   C5    BRK    A:66    X:47    Y:01    P:EB    SP:F9       BaseAddr:0000    IndirAddr:0000    Implied
C5F4   FB   60   0F    RTI    A:66    X:47    Y:01    P:EB    SP:FC       BaseAddr:0000    IndirAddr:0000    Implied
0F60   00   F4   C5    BRK    A:66    X:47    Y:01    P:EB    SP:F9       BaseAddr:0000    IndirAddr:0000    Implied
C5F4   FB   61   0F    RTI    A:66    X:47    Y:01    P:EB    SP:FC       BaseAddr:0000    IndirAddr:0000    Implied
0F61   00   F4   C5    BRK    A:66    X:47    Y:01    P:EB    SP:F9       BaseAddr:0000    IndirAddr:0000    Implied
C5F4   FB   62   0F    RTI    A:66    X:47    Y:01    P:EB    SP:FC       BaseAddr:0000    IndirAddr:0000    Implied
0F62   00   F4   C5    BRK    A:66    X:47    Y:01    P:EB    SP:F9       BaseAddr:0000    IndirAddr:0000    Implied
C5F4   FB   63   0F    RTI    A:66    X:47    Y:01    P:EB    SP:FC       BaseAddr:0000    IndirAddr:0000    Implied
0F63   00   F4   C5    BRK    A:66    X:47    Y:01    P:EB    SP:F9       BaseAddr:0000    IndirAddr:0000    Implied
C5F4   FB   64   0F    RTI    A:66    X:47    Y:01    P:EB    SP:FC       BaseAddr:0000    IndirAddr:0000    Implied
0F64   00   F4   C5    BRK    A:66    X:47    Y:01    P:EB    SP:F9       BaseAddr:0000    IndirAddr:0000    Implied
C5F4   FB   65   0F    RTI    A:66    X:47    Y:01    P:EB    SP:FC       BaseAddr:0000    IndirAddr:0000    Implied
0F65   00   F4   C5    BRK    A:66    X:47    Y:01    P:EB    SP:F9       BaseAddr:0000    IndirAddr:0000    Implied
C5F4   FB   66   0F    RTI    A:66    X:47    Y:01    P:EB    SP:FC       BaseAddr:0000    IndirAddr:0000    Implied
0F66   00   F4   C5    BRK    A:66    X:47    Y:01    P:EB    SP:F9       BaseAddr:0000    IndirAddr:0000    Implied
C5F4   FB   67   0F    RTI    A:66    X:47    Y:01    P:EB    SP:FC       BaseAddr:0000    IndirAddr:0000    Implied
0F67   00   F4   C5    BRK    A:66    X:47    Y:01    P:EB    SP:F9       BaseAddr:0000    IndirAddr:0000    Implied
C5F4   FB   68   0F    RTI    A:66    X:47    Y:01    P:EB    SP:FC       BaseAddr:0000    IndirAddr:0000    Implied
0F68   00   F4   C5    BRK    A:66    X:47    Y:01    P:EB    SP:F9       BaseAddr:0000    IndirAddr:0000    Implied
C5F4   FB   69   0F    RTI    A:66    X:47    Y:01    P:EB    SP:FC       BaseAddr:0000    IndirAddr:0000    Implied
0F69   00   F4   C5    BRK    A:66    X:47    Y:01    P:EB    SP:F9       BaseAddr:0000    IndirAddr:0000    Implied
C5F4   FB   6A   0F    RTI    A:66    X:47    Y:01    P:EB    SP:FC       BaseAddr:0000    IndirAddr:0000    Implied
0F6A   00   F4   C5    BRK    A:66    X:47    Y:01    P:EB    SP:F9       BaseAddr:0000    IndirAddr:0000    Implied
C5F4   FB   6B   0F    RTI    A:66    X:47    Y:01    P:EB    SP:FC       BaseAddr:0000    IndirAddr:0000    Implied
0F6B   00   F4   C5    BRK    A:66    X:47    Y:01    P:EB    SP:F9       BaseAddr:0000    IndirAddr:0000    Implied
C5F4   FB   6C   0F    RTI    A:66    X:47    Y:01    P:EB    SP:FC       BaseAddr:0000    IndirAddr:0000    Implied
0F6C   00   F4   C5    BRK    A:66    X:47    Y:01    P:EB    SP:F9       BaseAddr:0000    IndirAddr:0000    Implied
C5F4   FB   6D   0F    RTI    A:66    X:47    Y:01    P:EB    SP:FC       BaseAddr:0000    IndirAddr:0000    Implied
0F6D   00   F4   C5    BRK    A:66    X:47    Y:01    P:EB    SP:F9       BaseAddr:0000    IndirAddr:0000    Implied
C5F4   FB   6E   0F    RTI    A:66    X:47    Y:01    P:EB    SP:FC       BaseAddr:0000    IndirAddr:0000    Implied
0F6E   00   F4   C5    BRK    A:66    X:47    Y:01    P:EB    SP:F9       BaseAddr:0000    IndirAddr:0000    Implied
C5F4   FB   6F   0F    RTI    A:66    X:47    Y:01    P:EB    SP:FC       BaseAddr:0000    IndirAddr:0000    Implied
0F6F   00   F4   C5    BRK    A:66    X:47    Y:01    P:EB    SP:F9       BaseAddr:0000    IndirAddr:0000    Implied
C5F4   FB   70   0F    RTI    A:66    X:47    Y:01    P:EB    SP:FC       BaseAddr:0000    IndirAddr:0000    Implied
0F70   00   F4   C5    BRK    A:66    X:47    Y:01    P:EB    SP:F9       BaseAddr:0000    IndirAddr:0000    Implied
C5F4   FB   71   0F    RTI    A:66    X:47    Y:01    P:EB    SP:FC       BaseAddr:0000    IndirAddr:0000    Implied
0F71   00   F4   C5    BRK    A:66    X:47    Y:01    P:EB    SP:F9       BaseAddr:0000    IndirAddr:0000    Implied
C5F4   FB   72   0F    RTI    A:66    X:47    Y:01    P:EB    SP:FC       BaseAddr:0000    IndirAddr:0000    Implied
0F72   00   F4   C5    BRK    A:66    X:47    Y:01    P:EB    SP:F9       BaseAddr:0000    IndirAddr:0000    Implied
C5F4   FB   73   0F    RTI    A:66    X:47    Y:01    P:EB    SP:FC       BaseAddr:0000    IndirAddr:0000    Implied
0F73   00   F4   C5    BRK    A:66    X:47    Y:01    P:EB    SP:F9       BaseAddr:0000    IndirAddr:0000    Implied
C5F4   FB   74   0F    RTI    A:66    X:47    Y:01    P:EB    SP:FC       BaseAddr:0000    IndirAddr:0000    Implied
0F74   00   F4   C5    BRK    A:66    X:47    Y:01    P:EB    SP:F9       BaseAddr:0000    IndirAddr:0000    Implied
C5F4   FB   75   0F    RTI    A:66    X:47    Y:01    P:EB    SP:FC       BaseAddr:0000    IndirAddr:0000    Implied
0F75   00   F4   C5    BRK    A:66    X:47    Y:01    P:EB    SP:F9       BaseAddr:0000    IndirAddr:0000    Implied
C5F4   FB   76   0F    RTI    A:66    X:47    Y:01    P:EB    SP:FC       BaseAddr:0000    IndirAddr:0000    Implied
0F76   00   F4   C5    BRK    A:66    X:47    Y:01    P:EB    SP:F9       BaseAddr:0000    IndirAddr:0000    Implied
C5F4   FB   77   0F    RTI    A:66    X:47    Y:01    P:EB    SP:FC       BaseAddr:0000    IndirAddr:0000    Implied
0F77   00   F4   C5    BRK    A:66    X:47    Y:01    P:EB    SP:F9       BaseAddr:0000    IndirAddr:0000    Implied
C5F4   FB   78   0F    RTI    A:66    X:47    Y:01    P:EB    SP:FC       BaseAddr:0000    IndirAddr:0000    Implied
0F78   00   F4   C5    BRK    A:66    X:47    Y:01    P:EB    SP:F9       BaseAddr:0000    IndirAddr:0000    Implied
C5F4   FB   79   0F    RTI    A:66    X:47    Y:01    P:EB    SP:FC       BaseAddr:0000    IndirAddr:0000    Implied
0F79   00   F4   C5    BRK    A:66    X:47    Y:01    P:EB    SP:F9       BaseAddr:0000    IndirAddr:0000    Implied
C5F4   FB   7A   0F    RTI    A:66    X:47    Y:01    P:EB    SP:FC       BaseAddr:0000    IndirAddr:0000    Implied
0F7A   00   F4   C5    BRK    A:66    X:47    Y:01    P:EB    SP:F9       BaseAddr:0000    IndirAddr:0000    Implied
C5F4   FB   7B   0F    RTI    A:66    X:47    Y:01    P:EB    SP:FC       BaseAddr:0000    IndirAddr:0000    Implied
0F7B   00   F4   C5    BRK    A:66    X:47    Y:01    P:EB    SP:F9       BaseAddr:0000    IndirAddr:0000    Implied
C5F4   FB   7C   0F    RTI    A:66    X:47    Y:01    P:EB    SP:FC       BaseAddr:0000    IndirAddr:0000    Implied
0F7C   00   F4   C5    BRK    A:66    X:47    Y:01    P:EB    SP:F9       BaseAddr:0000    IndirAddr:0000    Implied
C5F4   FB   7D   0F    RTI    A:66    X:47    Y:01    P:EB    SP:FC       BaseAddr:0000    IndirAddr:0000    Implied
0F7D   00   F4   C5    BRK    A:66    X:47    Y:01    P:EB    SP:F9       BaseAddr:0000    IndirAddr:0000    Implied
C5F4   FB   7E   0F    RTI    A:66    X:47    Y:01    P:EB    SP:FC       BaseAddr:0000    IndirAddr:0000    Implied
0F7E   00   F4   C5    BRK    A:66    X:47    Y:01    P:EB    SP:F9       BaseAddr:0000    IndirAddr:0000    Implied
C5F4   FB   7F   0F    RTI    A:66    X:47    Y:01    P:EB    SP:FC       BaseAddr:0000    IndirAddr:0000    Implied
0F7F   00   F4   C5    BRK    A:66    X:47    Y:01    P:EB    SP:F9       BaseAddr:0000    IndirAddr:0000    Implied
C5F4   FB   80   0F    RTI    A:66    X:47    Y:01    P:EB    SP:FC       BaseAddr:0000    IndirAddr:0000    Implied
0F80   00   F4   C5    BRK    A:66    X:47    Y:01    P:EB    SP:F9       BaseAddr:0000    IndirAddr:0000    Implied
C5F4   FB   81   0F    RTI    A:66    X:47    Y:01    P:EB    SP:FC       BaseAddr:0000    IndirAddr:0000    Implied
0F81   00   F4   C5    BRK    A:66    X:47    Y:01    P:EB    SP:F9       BaseAddr:0000    IndirAddr:0000    Implied
C5F4   FB   82   0F    RTI    A:66    X:47    Y:01    P:EB    SP:FC       BaseAddr:0000    IndirAddr:0000    Implied
0F82   00   F4   C5    BRK    A:66    X:47    Y:01    P:EB    SP:F9       BaseAddr:0000    IndirAddr:0000    Implied
C5F4   FB   83   0F    RTI    A:66    X:47    Y:01    P:EB    SP:FC       BaseAddr:0000    IndirAddr:0000    Implied
0F83   00   F4   C5    BRK    A:66    X:47    Y:01    P:EB    SP:F9       BaseAddr:0000    IndirAddr:0000    Implied
C5F4   FB   84   0F    RTI    A:66    X:47    Y:01    P:EB    SP:FC       BaseAddr:0000    IndirAddr:0000    Implied
0F84   00   F4   C5    BRK    A:66    X:47    Y:01    P:EB    SP:F9       BaseAddr:0000    IndirAddr:0000    Implied
C5F4   FB   85   0F    RTI    A:66    X:47    Y:01    P:EB    SP:FC       BaseAddr:0000    IndirAddr:0000    Implied
0F85   00   F4   C5    BRK    A:66    X:47    Y:01    P:EB    SP:F9       BaseAddr:0000    IndirAddr:0000    Implied
C5F4   FB   86   0F    RTI    A:66    X:47    Y:01    P:EB    SP:FC       BaseAddr:0000    IndirAddr:0000    Implied
0F86   00   F4   C5    BRK    A:66    X:47    Y:01    P:EB    SP:F9       BaseAddr:0000    IndirAddr:0000    Implied
C5F4   FB   87   0F    RTI    A:66    X:47    Y:01    P:EB    SP:FC       BaseAddr:0000    IndirAddr:0000    Implied
0F87   00   F4   C5    BRK    A:66    X:47    Y:01    P:EB    SP:F9       BaseAddr:0000    IndirAddr:0000    Implied
C5F4   FB   88   0F    RTI    A:66    X:47    Y:01    P:EB    SP:FC       BaseAddr:0000    IndirAddr:0000    Implied
0F88   00   F4   C5    BRK    A:66    X:47    Y:01    P:EB    SP:F9       BaseAddr:0000    IndirAddr:0000    Implied
C5F4   FB   89   0F    RTI    A:66    X:47    Y:01    P:EB    SP:FC       BaseAddr:0000    IndirAddr:0000    Implied
0F89   00   F4   C5    BRK    A:66    X:47    Y:01    P:EB    SP:F9       BaseAddr:0000    IndirAddr:0000    Implied
C5F4   FB   8A   0F    RTI    A:66    X:47    Y:01    P:EB    SP:FC       BaseAddr:0000    IndirAddr:0000    Implied
0F8A   00   F4   C5    BRK    A:66    X:47    Y:01    P:EB    SP:F9       BaseAddr:0000    IndirAddr:0000    Implied
C5F4   FB   8B   0F    RTI    A:66    X:47    Y:01    P:EB    SP:FC       BaseAddr:0000    IndirAddr:0000    Implied
0F8B   00   F4   C5    BRK    A:66    X:47    Y:01    P:EB    SP:F9       BaseAddr:0000    IndirAddr:0000    Implied
C5F4   FB   8C   0F    RTI    A:66    X:47    Y:01    P:EB    SP:FC       BaseAddr:0000    IndirAddr:0000    Implied
0F8C   00   F4   C5    BRK    A:66    X:47    Y:01    P:EB    SP:F9       BaseAddr:0000    IndirAddr:0000    Implied
C5F4   FB   8D   0F    RTI    A:66    X:47    Y:01    P:EB    SP:FC       BaseAddr:0000    IndirAddr:0000    Implied
0F8D   00   F4   C5    BRK    A:66    X:47    Y:01    P:EB    SP:F9       BaseAddr:0000    IndirAddr:0000    Implied
C5F4   FB   8E   0F    RTI    A:66    X:47    Y:01    P:EB    SP:FC       BaseAddr:0000    IndirAddr:0000    Implied
0F8E   00   F4   C5    BRK    A:66    X:47    Y:01    P:EB    SP:F9       BaseAddr:0000    IndirAddr:0000    Implied
C5F4   FB   8F   0F    RTI    A:66    X:47    Y:01    P:EB    SP:FC       BaseAddr:0000    IndirAddr:0000    Implied
0F8F   00   F4   C5    BRK    A:66    X:47    Y:01    P:EB    SP:F9       BaseAddr:0000    IndirAddr:0000    Implied
C5F4   FB   90   0F    RTI    A:66    X:47    Y:01    P:EB    SP:FC       BaseAddr:0000    IndirAddr:0000    Implied
0F90   00   F4   C5    BRK    A:66    X:47    Y:01    P:EB    SP:F9       BaseAddr:0000    IndirAddr:0000    Implied
C5F4   FB   91   0F    RTI    A:66    X:47    Y:01    P:EB    SP:FC       BaseAddr:0000    IndirAddr:0000    Implied
0F91   00   F4   C5    BRK    A:66    X:47    Y:01    P:EB    SP:F9       BaseAddr:0000    IndirAddr:0000    Implied
C5F4   FB   92   0F    RTI    A:66    X:47    Y:01    P:EB    SP:FC       BaseAddr:0000    IndirAddr:0000    Implied
0F92   00   F4   C5    BRK    A:66    X:47    Y:01    P:EB    SP:F9       BaseAddr:0000    IndirAddr:0000    Implied
C5F4   FB   93   0F    RTI    A:66    X:47    Y:01    P:EB    SP:FC       BaseAddr:0000    IndirAddr:0000    Implied
0F93   00   F4   C5    BRK    A:66    X:47    Y:01    P:EB    SP:F9       BaseAddr:0000    IndirAddr:0000    Implied
C5F4   FB   94   0F    RTI    A:66    X:47    Y:01    P:EB    SP:FC       BaseAddr:0000    IndirAddr:0000    Implied
0F94   00   F4   C5    BRK    A:66    X:47    Y:01    P:EB    SP:F9       BaseAddr:0000    IndirAddr:0000    Implied
C5F4   FB   95   0F    RTI    A:66    X:47    Y:01    P:EB    SP:FC       BaseAddr:0000    IndirAddr:0000    Implied
0F95   00   F4   C5    BRK    A:66    X:47    Y:01    P:EB    SP:F9       BaseAddr:0000    IndirAddr:0000    Implied
C5F4   FB   96   0F    RTI    A:66    X:47    Y:01    P:EB    SP:FC       BaseAddr:0000    IndirAddr:0000    Implied
0F96   00   F4   C5    BRK    A:66    X:47    Y:01    P:EB    SP:F9       BaseAddr:0000    IndirAddr:0000    Implied
C5F4   FB   97   0F    RTI    A:66    X:47    Y:01    P:EB    SP:FC       BaseAddr:0000    IndirAddr:0000    Implied
0F97   00   F4   C5    BRK    A:66    X:47    Y:01    P:EB    SP:F9       BaseAddr:0000    IndirAddr:0000    Implied
C5F4   FB   98   0F    RTI    A:66    X:47    Y:01    P:EB    SP:FC       BaseAddr:0000    IndirAddr:0000    Implied
0F98   00   F4   C5    BRK    A:66    X:47    Y:01    P:EB    SP:F9       BaseAddr:0000    IndirAddr:0000    Implied
C5F4   FB   99   0F    RTI    A:66    X:47    Y:01    P:EB    SP:FC       BaseAddr:0000    IndirAddr:0000    Implied
0F99   00   F4   C5    BRK    A:66    X:47    Y:01    P:EB    SP:F9       BaseAddr:0000    IndirAddr:0000    Implied
C5F4   FB   9A   0F    RTI    A:66    X:47    Y:01    P:EB    SP:FC       BaseAddr:0000    IndirAddr:0000    Implied
0F9A   00   F4   C5    BRK    A:66    X:47    Y:01    P:EB    SP:F9       BaseAddr:0000    IndirAddr:0000    Implied
C5F4   FB   9B   0F    RTI    A:66    X:47    Y:01    P:EB    SP:FC       BaseAddr:0000    IndirAddr:0000    Implied
0F9B   00   F4   C5    BRK    A:66    X:47    Y:01    P:EB    SP:F9       BaseAddr:0000    IndirAddr:0000    Implied
C5F4   FB   9C   0F    RTI    A:66    X:47    Y:01    P:EB    SP:FC       BaseAddr:0000    IndirAddr:0000    Implied
0F9C   00   F4   C5    BRK    A:66    X:47    Y:01    P:EB    SP:F9       BaseAddr:0000    IndirAddr:0000    Implied
C5F4   FB   9D   0F    RTI    A:66    X:47    Y:01    P:EB    SP:FC       BaseAddr:0000    IndirAddr:0000    Implied
0F9D   00   F4   C5    BRK    A:66    X:47    Y:01    P:EB    SP:F9       BaseAddr:0000    IndirAddr:0000    Implied
C5F4   FB   9E   0F    RTI    A:66    X:47    Y:01    P:EB    SP:FC       BaseAddr:0000    IndirAddr:0000    Implied
0F9E   00   F4   C5    BRK    A:66    X:47    Y:01    P:EB    SP:F9       BaseAddr:0000    IndirAddr:0000    Implied
C5F4   FB   9F   0F    RTI    A:66    X:47    Y:01    P:EB    SP:FC       BaseAddr:0000    IndirAddr:0000    Implied
0F9F   00   F4   C5    BRK    A:66    X:47    Y:01    P:EB    SP:F9       BaseAddr:0000    IndirAddr:0000    Implied
C5F4   FB   A0   0F    RTI    A:66    X:47    Y:01    P:EB    SP:FC       BaseAddr:0000    IndirAddr:0000    Implied
0FA0   00   F4   C5    BRK    A:66    X:47    Y:01    P:EB    SP:F9       BaseAddr:0000    IndirAddr:0000    Implied
C5F4   FB   A1   0F    RTI    A:66    X:47    Y:01    P:EB    SP:FC       BaseAddr:0000    IndirAddr:0000    Implied
0FA1   00   F4   C5    BRK    A:66    X:47    Y:01    P:EB    SP:F9       BaseAddr:0000    IndirAddr:0000    Implied
C5F4   FB   A2   0F    RTI    A:66    X:47    Y:01    P:EB    SP:FC       BaseAddr:0000    IndirAddr:0000    Implied
0FA2   00   F4   C5    BRK    A:66    X:47    Y:01    P:EB    SP:F9       BaseAddr:0000    IndirAddr:0000    Implied
C5F4   FB   A3   0F    RTI    A:66    X:47    Y:01    P:EB    SP:FC       BaseAddr:0000    IndirAddr:0000    Implied
0FA3   00   F4   C5    BRK    A:66    X:47    Y:01    P:EB    SP:F9       BaseAddr:0000    IndirAddr:0000    Implied
C5F4   FB   A4   0F    RTI    A:66    X:47    Y:01    P:EB    SP:FC       BaseAddr:0000    IndirAddr:0000    Implied
0FA4   00   F4   C5    BRK    A:66    X:47    Y:01    P:EB    SP:F9       BaseAddr:0000    IndirAddr:0000    Implied
C5F4   FB   A5   0F    RTI    A:66    X:47    Y:01    P:EB    SP:FC       BaseAddr:0000    IndirAddr:0000    Implied
0FA5   00   F4   C5    BRK    A:66    X:47    Y:01    P:EB    SP:F9       BaseAddr:0000    IndirAddr:0000    Implied
C5F4   FB   A6   0F    RTI    A:66    X:47    Y:01    P:EB    SP:FC       BaseAddr:0000    IndirAddr:0000    Implied
0FA6   00   F4   C5    BRK    A:66    X:47    Y:01    P:EB    SP:F9       BaseAddr:0000    IndirAddr:0000    Implied
C5F4   FB   A7   0F    RTI    A:66    X:47    Y:01    P:EB    SP:FC       BaseAddr:0000    IndirAddr:0000    Implied
0FA7   00   F4   C5    BRK    A:66    X:47    Y:01    P:EB    SP:F9       BaseAddr:0000    IndirAddr:0000    Implied
C5F4   FB   A8   0F    RTI    A:66    X:47    Y:01    P:EB    SP:FC       BaseAddr:0000    IndirAddr:0000    Implied
0FA8   00   F4   C5    BRK    A:66    X:47    Y:01    P:EB    SP:F9       BaseAddr:0000    IndirAddr:0000    Implied
C5F4   FB   A9   0F    RTI    A:66    X:47    Y:01    P:EB    SP:FC       BaseAddr:0000    IndirAddr:0000    Implied
0FA9   00   F4   C5    BRK    A:66    X:47    Y:01    P:EB    SP:F9       BaseAddr:0000    IndirAddr:0000    Implied
C5F4   FB   AA   0F    RTI    A:66    X:47    Y:01    P:EB    SP:FC       BaseAddr:0000    IndirAddr:0000    Implied
0FAA   00   F4   C5    BRK    A:66    X:47    Y:01    P:EB    SP:F9       BaseAddr:0000    IndirAddr:0000    Implied
C5F4   FB   AB   0F    RTI    A:66    X:47    Y:01    P:EB    SP:FC       BaseAddr:0000    IndirAddr:0000    Implied
0FAB   00   F4   C5    BRK    A:66    X:47    Y:01    P:EB    SP:F9       BaseAddr:0000    IndirAddr:0000    Implied
C5F4   FB   AC   0F    RTI    A:66    X:47    Y:01    P:EB    SP:FC       BaseAddr:0000    IndirAddr:0000    Implied
0FAC   00   F4   C5    BRK    A:66    X:47    Y:01    P:EB    SP:F9       BaseAddr:0000    IndirAddr:0000    Implied
C5F4   FB   AD   0F    RTI    A:66    X:47    Y:01    P:EB    SP:FC       BaseAddr:0000    IndirAddr:0000    Implied
0FAD   00   F4   C5    BRK    A:66    X:47    Y:01    P:EB    SP:F9       BaseAddr:0000    IndirAddr:0000    Implied
C5F4   FB   AE   0F    RTI    A:66    X:47    Y:01    P:EB    SP:FC       BaseAddr:0000    IndirAddr:0000    Implied
0FAE   00   F4   C5    BRK    A:66    X:47    Y:01    P:EB    SP:F9       BaseAddr:0000    IndirAddr:0000    Implied
C5F4   FB   AF   0F    RTI    A:66    X:47    Y:01    P:EB    SP:FC       BaseAddr:0000    IndirAddr:0000    Implied
0FAF   00   F4   C5    BRK    A:66    X:47    Y:01    P:EB    SP:F9       BaseAddr:0000    IndirAddr:0000    Implied
C5F4   FB   B0   0F    RTI    A:66    X:47    Y:01    P:EB    SP:FC       BaseAddr:0000    IndirAddr:0000    Implied
0FB0   00   F4   C5    BRK    A:66    X:47    Y:01    P:EB    SP:F9       BaseAddr:0000    IndirAddr:0000    Implied
C5F4   FB   B1   0F    RTI    A:66    X:47    Y:01    P:EB    SP:FC       BaseAddr:0000    IndirAddr:0000    Implied
0FB1   00   F4   C5    BRK    A:66    X:47    Y:01    P:EB    SP:F9       BaseAddr:0000    IndirAddr:0000    Implied
C5F4   FB   B2   0F    RTI    A:66    X:47    Y:01    P:EB    SP:FC       BaseAddr:0000    IndirAddr:0000    Implied
0FB2   00   F4   C5    BRK    A:66    X:47    Y:01    P:EB    SP:F9       BaseAddr:0000    IndirAddr:0000    Implied
C5F4   FB   B3   0F    RTI    A:66    X:47    Y:01    P:EB    SP:FC       BaseAddr:0000    IndirAddr:0000    Implied
0FB3   00   F4   C5    BRK    A:66    X:47    Y:01    P:EB    SP:F9       BaseAddr:0000    IndirAddr:0000    Implied
C5F4   FB   B4   0F    RTI    A:66    X:47    Y:01    P:EB    SP:FC       BaseAddr:0000    IndirAddr:0000    Implied
0FB4   00   F4   C5    BRK    A:66    X:47    Y:01    P:EB    SP:F9       BaseAddr:0000    IndirAddr:0000    Implied
C5F4   FB   B5   0F    RTI    A:66    X:47    Y:01    P:EB    SP:FC       BaseAddr:0000    IndirAddr:0000    Implied
0FB5   00   F4   C5    BRK    A:66    X:47    Y:01    P:EB    SP:F9       BaseAddr:0000    IndirAddr:0000    Implied
C5F4   FB   B6   0F    RTI    A:66    X:47    Y:01    P:EB    SP:FC       BaseAddr:0000    IndirAddr:0000    Implied
0FB6   00   F4   C5    BRK    A:66    X:47    Y:01    P:EB    SP:F9       BaseAddr:0000    IndirAddr:0000    Implied
C5F4   FB   B7   0F    RTI    A:66    X:47    Y:01    P:EB    SP:FC       BaseAddr:0000    IndirAddr:0000    Implied
0FB7   00   F4   C5    BRK    A:66    X:47    Y:01    P:EB    SP:F9       BaseAddr:0000    IndirAddr:0000    Implied
C5F4   FB   B8   0F    RTI    A:66    X:47    Y:01    P:EB    SP:FC       BaseAddr:0000    IndirAddr:0000    Implied
0FB8   00   F4   C5    BRK    A:66    X:47    Y:01    P:EB    SP:F9       BaseAddr:0000    IndirAddr:0000    Implied
C5F4   FB   B9   0F    RTI    A:66    X:47    Y:01    P:EB    SP:FC       BaseAddr:0000    IndirAddr:0000    Implied
0FB9   00   F4   C5    BRK    A:66    X:47    Y:01    P:EB    SP:F9       BaseAddr:0000    IndirAddr:0000    Implied
C5F4   FB   BA   0F    RTI    A:66    X:47    Y:01    P:EB    SP:FC       BaseAddr:0000    IndirAddr:0000    Implied
0FBA   00   F4   C5    BRK    A:66    X:47    Y:01    P:EB    SP:F9       BaseAddr:0000    IndirAddr:0000    Implied
C5F4   FB   BB   0F    RTI    A:66    X:47    Y:01    P:EB    SP:FC       BaseAddr:0000    IndirAddr:0000    Implied
0FBB   00   F4   C5    BRK    A:66    X:47    Y:01    P:EB    SP:F9       BaseAddr:0000    IndirAddr:0000    Implied
C5F4   FB   BC   0F    RTI    A:66    X:47    Y:01    P:EB    SP:FC       BaseAddr:0000    IndirAddr:0000    Implied
0FBC   00   F4   C5    BRK    A:66    X:47    Y:01    P:EB    SP:F9       BaseAddr:0000    IndirAddr:0000    Implied
C5F4   FB   BD   0F    RTI    A:66    X:47    Y:01    P:EB    SP:FC       BaseAddr:0000    IndirAddr:0000    Implied
0FBD   00   F4   C5    BRK    A:66    X:47    Y:01    P:EB    SP:F9       BaseAddr:0000    IndirAddr:0000    Implied
C5F4   FB   BE   0F    RTI    A:66    X:47    Y:01    P:EB    SP:FC       BaseAddr:0000    IndirAddr:0000    Implied
0FBE   00   F4   C5    BRK    A:66    X:47    Y:01    P:EB    SP:F9       BaseAddr:0000    IndirAddr:0000    Implied
C5F4   FB   BF   0F    RTI    A:66    X:47    Y:01    P:EB    SP:FC       BaseAddr:0000    IndirAddr:0000    Implied
0FBF   00   F4   C5    BRK    A:66    X:47    Y:01    P:EB    SP:F9       BaseAddr:0000    IndirAddr:0000    Implied
C5F4   FB   C0   0F    RTI    A:66    X:47    Y:01    P:EB    SP:FC       BaseAddr:0000    IndirAddr:0000    Implied
0FC0   00   F4   C5    BRK    A:66    X:47    Y:01    P:EB    SP:F9       BaseAddr:0000    IndirAddr:0000    Implied
C5F4   FB   C1   0F    RTI    A:66    X:47    Y:01    P:EB    SP:FC       BaseAddr:0000    IndirAddr:0000    Implied
0FC1   00   F4   C5    BRK    A:66    X:47    Y:01    P:EB    SP:F9       BaseAddr:0000    IndirAddr:0000    Implied
C5F4   FB   C2   0F    RTI    A:66    X:47    Y:01    P:EB    SP:FC       BaseAddr:0000    IndirAddr:0000    Implied
0FC2   00   F4   C5    BRK    A:66    X:47    Y:01    P:EB    SP:F9       BaseAddr:0000    IndirAddr:0000    Implied
C5F4   FB   C3   0F    RTI    A:66    X:47    Y:01    P:EB    SP:FC       BaseAddr:0000    IndirAddr:0000    Implied
0FC3   00   F4   C5    BRK    A:66    X:47    Y:01    P:EB    SP:F9       BaseAddr:0000    IndirAddr:0000    Implied
C5F4   FB   C4   0F    RTI    A:66    X:47    Y:01    P:EB    SP:FC       BaseAddr:0000    IndirAddr:0000    Implied
0FC4   00   F4   C5    BRK    A:66    X:47    Y:01    P:EB    SP:F9       BaseAddr:0000    IndirAddr:0000    Implied
C5F4   FB   C5   0F    RTI    A:66    X:47    Y:01    P:EB    SP:FC       BaseAddr:0000    IndirAddr:0000    Implied
0FC5   00   F4   C5    BRK    A:66    X:47    Y:01    P:EB    SP:F9       BaseAddr:0000    IndirAddr:0000    Implied
C5F4   FB   C6   0F    RTI    A:66    X:47    Y:01    P:EB    SP:FC       BaseAddr:0000    IndirAddr:0000    Implied
0FC6   00   F4   C5    BRK    A:66    X:47    Y:01    P:EB    SP:F9       BaseAddr:0000    IndirAddr:0000    Implied
C5F4   FB   C7   0F    RTI    A:66    X:47    Y:01    P:EB    SP:FC       BaseAddr:0000    IndirAddr:0000    Implied
0FC7   00   F4   C5    BRK    A:66    X:47    Y:01    P:EB    SP:F9       BaseAddr:0000    IndirAddr:0000    Implied
C5F4   FB   C8   0F    RTI    A:66    X:47    Y:01    P:EB    SP:FC       BaseAddr:0000    IndirAddr:0000    Implied
0FC8   00   F4   C5    BRK    A:66    X:47    Y:01    P:EB    SP:F9       BaseAddr:0000    IndirAddr:0000    Implied
C5F4   FB   C9   0F    RTI    A:66    X:47    Y:01    P:EB    SP:FC       BaseAddr:0000    IndirAddr:0000    Implied
0FC9   00   F4   C5    BRK    A:66    X:47    Y:01    P:EB    SP:F9       BaseAddr:0000    IndirAddr:0000    Implied
C5F4   FB   CA   0F    RTI    A:66    X:47    Y:01    P:EB    SP:FC       BaseAddr:0000    IndirAddr:0000    Implied
0FCA   00   F4   C5    BRK    A:66    X:47    Y:01    P:EB    SP:F9       BaseAddr:0000    IndirAddr:0000    Implied
C5F4   FB   CB   0F    RTI    A:66    X:47    Y:01    P:EB    SP:FC       BaseAddr:0000    IndirAddr:0000    Implied
0FCB   00   F4   C5    BRK    A:66    X:47    Y:01    P:EB    SP:F9       BaseAddr:0000    IndirAddr:0000    Implied
C5F4   FB   CC   0F    RTI    A:66    X:47    Y:01    P:EB    SP:FC       BaseAddr:0000    IndirAddr:0000    Implied
0FCC   00   F4   C5    BRK    A:66    X:47    Y:01    P:EB    SP:F9       BaseAddr:0000    IndirAddr:0000    Implied
C5F4   FB   CD   0F    RTI    A:66    X:47    Y:01    P:EB    SP:FC       BaseAddr:0000    IndirAddr:0000    Implied
0FCD   00   F4   C5    BRK    A:66    X:47    Y:01    P:EB    SP:F9       BaseAddr:0000    IndirAddr:0000    Implied
C5F4   FB   CE   0F    RTI    A:66    X:47    Y:01    P:EB    SP:FC       BaseAddr:0000    IndirAddr:0000    Implied
0FCE   00   F4   C5    BRK    A:66    X:47    Y:01    P:EB    SP:F9       BaseAddr:0000    IndirAddr:0000    Implied
C5F4   FB   CF   0F    RTI    A:66    X:47    Y:01    P:EB    SP:FC       BaseAddr:0000    IndirAddr:0000    Implied
0FCF   00   F4   C5    BRK    A:66    X:47    Y:01    P:EB    SP:F9       BaseAddr:0000    IndirAddr:0000    Implied
C5F4   FB   D0   0F    RTI    A:66    X:47    Y:01    P:EB    SP:FC       BaseAddr:0000    IndirAddr:0000    Implied
0FD0   00   F4   C5    BRK    A:66    X:47    Y:01    P:EB    SP:F9       BaseAddr:0000    IndirAddr:0000    Implied
C5F4   FB   D1   0F    RTI    A:66    X:47    Y:01    P:EB    SP:FC       BaseAddr:0000    IndirAddr:0000    Implied
0FD1   00   F4   C5    BRK    A:66    X:47    Y:01    P:EB    SP:F9       BaseAddr:0000    IndirAddr:0000    Implied
C5F4   FB   D2   0F    RTI    A:66    X:47    Y:01    P:EB    SP:FC       BaseAddr:0000    IndirAddr:0000    Implied
0FD2   00   F4   C5    BRK    A:66    X:47    Y:01    P:EB    SP:F9       BaseAddr:0000    IndirAddr:0000    Implied
C5F4   FB   D3   0F    RTI    A:66    X:47    Y:01    P:EB    SP:FC       BaseAddr:0000    IndirAddr:0000    Implied
0FD3   00   F4   C5    BRK    A:66    X:47    Y:01    P:EB    SP:F9       BaseAddr:0000    IndirAddr:0000    Implied
C5F4   FB   D4   0F    RTI    A:66    X:47    Y:01    P:EB    SP:FC       BaseAddr:0000    IndirAddr:0000    Implied
0FD4   00   F4   C5    BRK    A:66    X:47    Y:01    P:EB    SP:F9       BaseAddr:0000    IndirAddr:0000    Implied
C5F4   FB   D5   0F    RTI    A:66    X:47    Y:01    P:EB    SP:FC       BaseAddr:0000    IndirAddr:0000    Implied
0FD5   00   F4   C5    BRK    A:66    X:47    Y:01    P:EB    SP:F9       BaseAddr:0000    IndirAddr:0000    Implied
C5F4   FB   D6   0F    RTI    A:66    X:47    Y:01    P:EB    SP:FC       BaseAddr:0000    IndirAddr:0000    Implied
0FD6   00   F4   C5    BRK    A:66    X:47    Y:01    P:EB    SP:F9       BaseAddr:0000    IndirAddr:0000    Implied
C5F4   FB   D7   0F    RTI    A:66    X:47    Y:01    P:EB    SP:FC       BaseAddr:0000    IndirAddr:0000    Implied
0FD7   00   F4   C5    BRK    A:66    X:47    Y:01    P:EB    SP:F9       BaseAddr:0000    IndirAddr:0000    Implied
C5F4   FB   D8   0F    RTI    A:66    X:47    Y:01    P:EB    SP:FC       BaseAddr:0000    IndirAddr:0000    Implied
0FD8   00   F4   C5    BRK    A:66    X:47    Y:01    P:EB    SP:F9       BaseAddr:0000    IndirAddr:0000    Implied
C5F4   FB   D9   0F    RTI    A:66    X:47    Y:01    P:EB    SP:FC       BaseAddr:0000    IndirAddr:0000    Implied
0FD9   00   F4   C5    BRK    A:66    X:47    Y:01    P:EB    SP:F9       BaseAddr:0000    IndirAddr:0000    Implied
C5F4   FB   DA   0F    RTI    A:66    X:47    Y:01    P:EB    SP:FC       BaseAddr:0000    IndirAddr:0000    Implied
0FDA   00   F4   C5    BRK    A:66    X:47    Y:01    P:EB    SP:F9       BaseAddr:0000    IndirAddr:0000    Implied
C5F4   FB   DB   0F    RTI    A:66    X:47    Y:01    P:EB    SP:FC       BaseAddr:0000    IndirAddr:0000    Implied
0FDB   00   F4   C5    BRK    A:66    X:47    Y:01    P:EB    SP:F9       BaseAddr:0000    IndirAddr:0000    Implied
C5F4   FB   DC   0F    RTI    A:66    X:47    Y:01    P:EB    SP:FC       BaseAddr:0000    IndirAddr:0000    Implied
0FDC   00   F4   C5    BRK    A:66    X:47    Y:01    P:EB    SP:F9       BaseAddr:0000    IndirAddr:0000    Implied
C5F4   FB   DD   0F    RTI    A:66    X:47    Y:01    P:EB    SP:FC       BaseAddr:0000    IndirAddr:0000    Implied
0FDD   00   F4   C5    BRK    A:66    X:47    Y:01    P:EB    SP:F9       BaseAddr:0000    IndirAddr:0000    Implied
C5F4   FB   DE   0F    RTI    A:66    X:47    Y:01    P:EB    SP:FC       BaseAddr:0000    IndirAddr:0000    Implied
0FDE   00   F4   C5    BRK    A:66    X:47    Y:01    P:EB    SP:F9       BaseAddr:0000    IndirAddr:0000    Implied
C5F4   FB   DF   0F    RTI    A:66    X:47    Y:01    P:EB    SP:FC       BaseAddr:0000    IndirAddr:0000    Implied
0FDF   00   F4   C5    BRK    A:66    X:47    Y:01    P:EB    SP:F9       BaseAddr:0000    IndirAddr:0000    Implied
C5F4   FB   E0   0F    RTI    A:66    X:47    Y:01    P:EB    SP:FC       BaseAddr:0000    IndirAddr:0000    Implied
0FE0   00   F4   C5    BRK    A:66    X:47    Y:01    P:EB    SP:F9       BaseAddr:0000    IndirAddr:0000    Implied
C5F4   FB   E1   0F    RTI    A:66    X:47    Y:01    P:EB    SP:FC       BaseAddr:0000    IndirAddr:0000    Implied
0FE1   00   F4   C5    BRK    A:66    X:47    Y:01    P:EB    SP:F9       BaseAddr:0000    IndirAddr:0000    Implied
C5F4   FB   E2   0F    RTI    A:66    X:47    Y:01    P:EB    SP:FC       BaseAddr:0000    IndirAddr:0000    Implied
0FE2   00   F4   C5    BRK    A:66    X:47    Y:01    P:EB    SP:F9       BaseAddr:0000    IndirAddr:0000    Implied
C5F4   FB   E3   0F    RTI    A:66    X:47    Y:01    P:EB    SP:FC       BaseAddr:0000    IndirAddr:0000    Implied
0FE3   00   F4   C5    BRK    A:66    X:47    Y:01    P:EB    SP:F9       BaseAddr:0000    IndirAddr:0000    Implied
C5F4   FB   E4   0F    RTI    A:66    X:47    Y:01    P:EB    SP:FC       BaseAddr:0000    IndirAddr:0000    Implied
0FE4   00   F4   C5    BRK    A:66    X:47    Y:01    P:EB    SP:F9       BaseAddr:0000    IndirAddr:0000    Implied
C5F4   FB   E5   0F    RTI    A:66    X:47    Y:01    P:EB    SP:FC       BaseAddr:0000    IndirAddr:0000    Implied
0FE5   00   F4   C5    BRK    A:66    X:47    Y:01    P:EB    SP:F9       BaseAddr:0000    IndirAddr:0000    Implied
C5F4   FB   E6   0F    RTI    A:66    X:47    Y:01    P:EB    SP:FC       BaseAddr:0000    IndirAddr:0000    Implied
0FE6   00   F4   C5    BRK    A:66    X:47    Y:01    P:EB    SP:F9       BaseAddr:0000    IndirAddr:0000    Implied
C5F4   FB   E7   0F    RTI    A:66    X:47    Y:01    P:EB    SP:FC       BaseAddr:0000    IndirAddr:0000    Implied
0FE7   00   F4   C5    BRK    A:66    X:47    Y:01    P:EB    SP:F9       BaseAddr:0000    IndirAddr:0000    Implied
C5F4   FB   E8   0F    RTI    A:66    X:47    Y:01    P:EB    SP:FC       BaseAddr:0000    IndirAddr:0000    Implied
0FE8   00   F4   C5    BRK    A:66    X:47    Y:01    P:EB    SP:F9       BaseAddr:0000    IndirAddr:0000    Implied
C5F4   FB   E9   0F    RTI    A:66    X:47    Y:01    P:EB    SP:FC       BaseAddr:0000    IndirAddr:0000    Implied
0FE9   00   F4   C5    BRK    A:66    X:47    Y:01    P:EB    SP:F9       BaseAddr:0000    IndirAddr:0000    Implied
C5F4   FB   EA   0F    RTI    A:66    X:47    Y:01    P:EB    SP:FC       BaseAddr:0000    IndirAddr:0000    Implied
0FEA   00   F4   C5    BRK    A:66    X:47    Y:01    P:EB    SP:F9       BaseAddr:0000    IndirAddr:0000    Implied
C5F4   FB   EB   0F    RTI    A:66    X:47    Y:01    P:EB    SP:FC       BaseAddr:0000    IndirAddr:0000    Implied
0FEB   00   F4   C5    BRK    A:66    X:47    Y:01    P:EB    SP:F9       BaseAddr:0000    IndirAddr:0000    Implied
C5F4   FB   EC   0F    RTI    A:66    X:47    Y:01    P:EB    SP:FC       BaseAddr:0000    IndirAddr:0000    Implied
0FEC   00   F4   C5    BRK    A:66    X:47    Y:01    P:EB    SP:F9       BaseAddr:0000    IndirAddr:0000    Implied
C5F4   FB   ED   0F    RTI    A:66    X:47    Y:01    P:EB    SP:FC       BaseAddr:0000    IndirAddr:0000    Implied
0FED   00   F4   C5    BRK    A:66    X:47    Y:01    P:EB    SP:F9       BaseAddr:0000    IndirAddr:0000    Implied
C5F4   FB   EE   0F    RTI    A:66    X:47    Y:01    P:EB    SP:FC       BaseAddr:0000    IndirAddr:0000    Implied
0FEE   00   F4   C5    BRK    A:66    X:47    Y:01    P:EB    SP:F9       BaseAddr:0000    IndirAddr:0000    Implied
C5F4   FB   EF   0F    RTI    A:66    X:47    Y:01    P:EB    SP:FC       BaseAddr:0000    IndirAddr:0000    Implied
0FEF   00   F4   C5    BRK    A:66    X:47    Y:01    P:EB    SP:F9       BaseAddr:0000    IndirAddr:0000    Implied
C5F4   FB   F0   0F    RTI    A:66    X:47    Y:01    P:EB    SP:FC       BaseAddr:0000    IndirAddr:0000    Implied
0FF0   00   F4   C5    BRK    A:66    X:47    Y:01    P:EB    SP:F9       BaseAddr:0000    IndirAddr: